(lp0
(dp1
S'preheat'
p2
(lp3
sS'#no-action#'
p4
(lp5
sa(dp6
S'beat'
p7
(lp8
(lp9
S'egg'
p10
aa(lp11
S'vanilla'
p12
aasg4
(lp13
sa(dp14
S'add'
p15
(lp16
(lp17
S'flour'
p18
aasg4
(lp19
sa(dp20
S'fold'
p21
(lp22
(lp23
S'chocolate'
p24
aS'chips'
p25
aasg4
(lp26
sa(dp27
g4
(lp28
sS'drop'
p29
(lp30
sS'bake'
p31
(lp32
sa(dp33
S'transfer'
p34
(lp35
sg4
(lp36
sS'cool'
p37
(lp38
sa(dp39
g4
(lp40
sa(dp41
g2
(lp42
sg4
(lp43
sa(dp44
g4
(lp45
sS'cream'
p46
(lp47
(lp48
S'butter'
p49
aa(lp50
S'sugar'
p51
aasa(dp52
S'mix'
p53
(lp54
sg15
(lp55
(lp56
g10
aa(lp57
g12
aasg4
(lp58
sa(dp59
g4
(lp60
sS'combine'
p61
(lp62
(lp63
S'white'
p64
ag18
aa(lp65
S'wheat'
p66
ag18
aa(lp67
S'baking'
p68
aS'soda'
p69
aa(lp70
S'salt'
p71
aa(lp72
g49
aa(lp73
g10
aasa(dp74
g53
(lp75
sg4
(lp76
sS'stir'
p77
(lp78
sS'pour'
p79
(lp80
(lp81
g24
aasa(dp82
S'press'
p83
(lp84
sg4
(lp85
sa(dp86
g4
(lp87
sg31
(lp88
(lp89
S'brown'
p90
aasa(dp91
g4
(lp92
sa(dp93
g4
(lp94
sa(dp95
g4
(lp96
(lp97
g24
aasa(dp98
g4
(lp99
sa(dp100
S'put'
p101
(lp102
sg2
(lp103
sg4
(lp104
sa(dp105
g4
(lp106
sa(dp107
g4
(lp108
sS'whisk'
p109
(lp110
(lp111
g18
aa(lp112
g68
ag69
aa(lp113
g71
aa(lp114
S'xanthan'
p115
aS'gum'
p116
aasa(dp117
g7
(lp118
(lp119
S'shortening'
p120
aa(lp121
g51
aasg4
(lp122
sa(dp123
g15
(lp124
(lp125
g10
aasg4
(lp126
sa(dp127
g7
(lp128
(lp129
g12
aasg4
(lp130
sa(dp131
S'reduce'
p132
(lp133
(lp134
g18
aasg4
(lp135
sg77
(lp136
(lp137
S'walnut'
p138
aa(lp139
g24
ag25
aasa(dp140
g4
(lp141
sg29
(lp142
sa(dp143
g4
(lp144
sg31
(lp145
sa(dp146
g34
(lp147
sg4
(lp148
sg37
(lp149
sa(dp150
g4
(lp151
sS'keep'
p152
(lp153
sa(dp154
g4
(lp155
sa(dp156
g2
(lp157
sg4
(lp158
sS'place'
p159
(lp160
sa(dp161
S'line'
p162
(lp163
sg4
(lp164
sa(dp165
g4
(lp166
sg109
(lp167
(lp168
g18
aa(lp169
g68
aS'powder'
p170
aa(lp171
g71
aa(lp172
g68
ag69
aasa(dp173
g7
(lp174
(lp175
g10
aa(lp176
g12
aasg4
(lp177
sa(dp178
g7
(lp179
(lp180
g49
aa(lp181
g51
aa(lp182
g90
ag51
aasg4
(lp183
sa(dp184
g7
(lp185
sg15
(lp186
(lp187
g10
aasg4
(lp188
sa(dp189
g15
(lp190
sg4
(lp191
sg132
(lp192
sa(dp193
g21
(lp194
(lp195
g24
aasg4
(lp196
sa(dp197
S'spoon'
p198
(lp199
sg4
(lp200
sa(dp201
g4
(lp202
sg31
(lp203
sa(dp204
g4
(lp205
sg31
(lp206
sg37
(lp207
sa(dp208
g34
(lp209
sg4
(lp210
sg37
(lp211
sa(dp212
g4
(lp213
sa(dp214
S'wrap'
p215
(lp216
sg4
(lp217
sS'freeze'
p218
(lp219
sa(dp220
g4
(lp221
sa(dp222
g4
(lp223
sS'store'
p224
(lp225
sg218
(lp226
sa(dp227
g4
(lp228
sa(dp229
S'position'
p230
(lp231
sg2
(lp232
sg4
(lp233
sa(dp234
g162
(lp235
sa(dp236
S'sift'
p237
(lp238
(lp239
g68
aa(lp240
S'nonstick'
p241
ag68
aasg4
(lp242
sa(dp243
g4
(lp244
sS'split'
p245
(lp246
(lp247
g12
aasS'scrape'
p248
(lp249
sa(dp250
g4
(lp251
sg61
(lp252
(lp253
g12
aa(lp254
S'cherry'
p255
aasa(dp256
g4
(lp257
sS'drain'
p258
(lp259
(lp260
g255
aa(lp261
g12
aS'bean'
p262
aasa(dp263
g7
(lp264
sg4
(lp265
sg61
(lp266
(lp267
g49
aa(lp268
g51
aa(lp269
g90
ag51
aasa(dp270
g7
(lp271
sg15
(lp272
(lp273
g10
aa(lp274
g12
ag262
aasg4
(lp275
sa(dp276
g15
(lp277
(lp278
g18
aasg4
(lp279
sa(dp280
g15
(lp281
(lp282
g255
aa(lp283
g64
ag24
aa(lp284
S'semisweet'
p285
ag24
aasg4
(lp286
sg77
(lp287
sa(dp288
g4
(lp289
sg29
(lp290
(lp291
g68
aS'sheet'
p292
aasa(dp293
g4
(lp294
sg31
(lp295
sa(dp296
g4
(lp297
sg37
(lp298
sa(dp299
g4
(lp300
sS'continue'
p301
(lp302
sa(dp303
g4
(lp304
sa(dp305
g4
(lp306
sa(dp307
g237
(lp308
sg4
(lp309
sa(dp310
g7
(lp311
(lp312
g49
aa(lp313
S'hazelnut'
p314
ag49
aa(lp315
g51
aasg4
(lp316
sa(dp317
g7
(lp318
(lp319
g10
aa(lp320
g12
aasg4
(lp321
sa(dp322
g7
(lp323
(lp324
g18
aasg4
(lp325
sa(dp326
g4
(lp327
sg77
(lp328
(lp329
g24
ag25
aasa(dp330
S'refrigerate'
p331
(lp332
sg4
(lp333
sS'cover'
p334
(lp335
sa(dp336
g4
(lp337
sa(dp338
g4
(lp339
sg152
(lp340
sa(dp341
g4
(lp342
sS'soften'
p343
(lp344
sa(dp345
g2
(lp346
sg4
(lp347
sa(dp348
g4
(lp349
sa(dp350
g4
(lp351
sS'roll'
p352
(lp353
sa(dp354
g4
(lp355
sS'arrange'
p356
(lp357
sa(dp358
g4
(lp359
sg31
(lp360
sa(dp361
g4
(lp362
sg37
(lp363
sa(dp364
g34
(lp365
sg4
(lp366
sg37
(lp367
sa(dp368
g4
(lp369
sa(dp370
g4
(lp371
sg224
(lp372
sa(dp373
g4
(lp374
sa(dp375
g4
(lp376
sS'grease'
p377
(lp378
(lp379
g49
aasa(dp380
g4
(lp381
sS'cut'
p382
(lp383
sa(dp384
g7
(lp385
(lp386
g49
aa(lp387
g10
aa(lp388
g12
aa(lp389
g51
aasg4
(lp390
sa(dp391
g4
(lp392
sg77
(lp393
(lp394
g18
aa(lp395
g68
ag69
aa(lp396
g71
aasa(dp397
g4
(lp398
sg77
(lp399
(lp400
g49
aasa(dp401
g4
(lp402
sg77
(lp403
(lp404
g138
aa(lp405
g24
aasa(dp406
g198
(lp407
sg4
(lp408
sa(dp409
S'cook'
p410
(lp411
sg4
(lp412
sg334
(lp413
sa(dp414
g4
(lp415
sS'set'
p416
(lp417
sa(dp418
S'turn'
p419
(lp420
sg4
(lp421
sS'remove'
p422
(lp423
sa(dp424
g4
(lp425
sg37
(lp426
sa(dp427
S'invert'
p428
(lp429
sg4
(lp430
sa(dp431
g4
(lp432
sg382
(lp433
sa(dp434
g4
(lp435
sS'serve'
p436
(lp437
sa(dp438
g4
(lp439
sa(dp440
g4
(lp441
sa(dp442
g4
(lp443
sa(dp444
g83
(lp445
sg4
(lp446
sa(dp447
g4
(lp448
sa(dp449
g2
(lp450
sg4
(lp451
sa(dp452
g4
(lp453
sS'mash'
p454
(lp455
(lp456
S'banana'
p457
aasa(dp458
g4
(lp459
sa(dp460
g4
(lp461
sg159
(lp462
sa(dp463
g4
(lp464
sg31
(lp465
sa(dp466
g4
(lp467
sg436
(lp468
sg37
(lp469
sa(dp470
S'make'
p471
(lp472
sg4
(lp473
sg31
(lp474
sg37
(lp475
sa(dp476
g4
(lp477
sg382
(lp478
sa(dp479
g37
(lp480
sg4
(lp481
sg218
(lp482
sa(dp483
g4
(lp484
sa(dp485
g4
(lp486
sa(dp487
g4
(lp488
(lp489
g457
aasa(dp490
g4
(lp491
sa(dp492
g2
(lp493
sg4
(lp494
sa(dp495
g4
(lp496
sS'whip'
p497
(lp498
(lp499
S'water'
p500
aS'flaxseed'
p501
aasa(dp502
g4
(lp503
sg416
(lp504
sa(dp505
g53
(lp506
(lp507
g49
aa(lp508
g51
aasg4
(lp509
sa(dp510
g15
(lp511
(lp512
g10
aa(lp513
g12
aasg4
(lp514
sa(dp515
g4
(lp516
sS'blend'
p517
(lp518
(lp519
S'cocoa'
p520
ag170
aa(lp521
g68
ag69
aa(lp522
g68
ag170
aa(lp523
g71
aa(lp524
g18
aasa(dp525
g53
(lp526
sg15
(lp527
sg4
(lp528
sa(dp529
g15
(lp530
(lp531
g500
aasg4
(lp532
sa(dp533
g4
(lp534
sg77
(lp535
g25
asa(dp536
g4
(lp537
sS'flatten'
p538
(lp539
sS'form'
p540
(lp541
sa(dp542
g4
(lp543
sg31
(lp544
sa(dp545
S'scoop'
p546
(lp547
sg4
(lp548
sa(dp549
g4
(lp550
sa(dp551
g4
(lp552
sa(dp553
g4
(lp554
sa(dp555
g4
(lp556
sa(dp557
g4
(lp558
sa(dp559
g4
(lp560
sa(dp561
g4
(lp562
sa(dp563
g2
(lp564
sg4
(lp565
sa(dp566
g162
(lp567
sg4
(lp568
sa(dp569
g237
(lp570
sg4
(lp571
sa(dp572
g7
(lp573
(lp574
g49
aasg4
(lp575
sa(dp576
g7
(lp577
(lp578
g10
aa(lp579
g51
aasg4
(lp580
sa(dp581
g7
(lp582
(lp583
g18
aa(lp584
S'almond'
p585
aS'extract'
p586
aa(lp587
g12
ag586
aasg4
(lp588
sa(dp589
g21
(lp590
g24
asg4
(lp591
sa(dp592
g4
(lp593
sg29
(lp594
sa(dp595
g4
(lp596
sg538
(lp597
sa(dp598
g4
(lp599
sg31
(lp600
sa(dp601
g4
(lp602
sS'reverse'
p603
(lp604
sa(dp605
g4
(lp606
sg31
(lp607
sa(dp608
g4
(lp609
sg37
(lp610
sa(dp611
g4
(lp612
sg218
(lp613
sa(dp614
g198
(lp615
sg4
(lp616
sa(dp617
S'top'
p618
(lp619
sg4
(lp620
sa(dp621
g215
(lp622
sg4
(lp623
sg218
(lp624
sa(dp625
g4
(lp626
sS'repeat'
p627
(lp628
sa(dp629
g4
(lp630
sg152
(lp631
sa(dp632
g4
(lp633
sa(dp634
g2
(lp635
sg4
(lp636
sa(dp637
g162
(lp638
sg4
(lp639
sa(dp640
g53
(lp641
(lp642
S'oil'
p643
aa(lp644
g71
aa(lp645
g12
aa(lp646
S'juice'
p647
aa(lp648
S'applesauce'
p649
aasg4
(lp650
sa(dp651
g4
(lp652
sg109
(lp653
(lp654
g18
aa(lp655
S'flax'
p656
aa(lp657
g68
ag69
aa(lp658
g115
ag116
aasa(dp659
g15
(lp660
sg4
(lp661
sg77
(lp662
sa(dp663
g21
(lp664
(lp665
g24
aasg4
(lp666
sa(dp667
g546
(lp668
sg4
(lp669
sa(dp670
g83
(lp671
sg4
(lp672
sa(dp673
g4
(lp674
sg31
(lp675
sa(dp676
g4
(lp677
sa(dp678
g34
(lp679
sg4
(lp680
sg37
(lp681
sa(dp682
g4
(lp683
sg224
(lp684
sa(dp685
g4
(lp686
sa(dp687
g2
(lp688
sg4
(lp689
sa(dp690
g237
(lp691
(lp692
g18
aa(lp693
g68
ag69
aa(lp694
g71
aasg4
(lp695
sa(dp696
g7
(lp697
(lp698
g49
aa(lp699
S'vegetable'
p700
ag120
aasg4
(lp701
sa(dp702
g7
(lp703
sg15
(lp704
(lp705
g51
aa(lp706
g90
ag51
aa(lp707
S'sour'
p708
ag46
aa(lp709
g12
aasg4
(lp710
sa(dp711
g7
(lp712
(lp713
g10
aa(lp714
g18
aasg4
(lp715
sa(dp716
g4
(lp717
sg77
(lp718
(lp719
g24
aasa(dp720
g4
(lp721
sg29
(lp722
sa(dp723
g4
(lp724
sg538
(lp725
sa(dp726
g4
(lp727
sg31
(lp728
sa(dp729
g4
(lp730
sg37
(lp731
sa(dp732
g34
(lp733
sg4
(lp734
sg37
(lp735
sa(dp736
g4
(lp737
sg627
(lp738
sa(dp739
g4
(lp740
sa(dp741
g2
(lp742
sg4
(lp743
sa(dp744
g4
(lp745
sg109
(lp746
(lp747
g18
aa(lp748
g68
ag69
aa(lp749
g68
ag170
aa(lp750
g71
aa(lp751
S'oat'
p752
aasa(dp753
g4
(lp754
sg46
(lp755
(lp756
g49
aa(lp757
g51
aasa(dp758
g7
(lp759
(lp760
g12
aa(lp761
g10
aasg4
(lp762
sa(dp763
g7
(lp764
(lp765
g18
aasg4
(lp766
sg77
(lp767
(lp768
g24
aasa(dp769
g4
(lp770
sg29
(lp771
sg31
(lp772
sa(dp773
g4
(lp774
sg37
(lp775
sa(dp776
g4
(lp777
sg152
(lp778
sa(dp779
g4
(lp780
sa(dp781
g2
(lp782
sg4
(lp783
sa(dp784
g4
(lp785
sg109
(lp786
(lp787
g18
aa(lp788
g68
ag69
aa(lp789
g71
aasa(dp790
g4
(lp791
sg46
(lp792
(lp793
g49
aa(lp794
g51
aasa(dp795
g7
(lp796
(lp797
g18
aa(lp798
g10
aasg4
(lp799
sa(dp800
g7
(lp801
(lp802
g12
aasg4
(lp803
sg77
(lp804
(lp805
S'coconut'
p806
aa(lp807
g24
aasa(dp808
g4
(lp809
sg29
(lp810
sg31
(lp811
sa(dp812
g34
(lp813
sg4
(lp814
sg37
(lp815
sa(dp816
g4
(lp817
sg152
(lp818
sa(dp819
g4
(lp820
sa(dp821
g2
(lp822
sg4
(lp823
sa(dp824
g49
(lp825
sg4
(lp826
sa(dp827
g7
(lp828
(lp829
g700
ag120
aa(lp830
g49
aasg4
(lp831
sa(dp832
g7
(lp833
sg15
(lp834
(lp835
g51
aasg4
(lp836
sa(dp837
g15
(lp838
(lp839
g10
aasg4
(lp840
sa(dp841
g15
(lp842
(lp843
g12
aS'pudding'
p844
aa(lp845
g12
ag586
aa(lp846
g68
ag69
aa(lp847
g500
aa(lp848
S'cinnamon'
p849
aa(lp850
S'nutmeg'
p851
aa(lp852
g71
aasg4
(lp853
sa(dp854
g53
(lp855
(lp856
g752
aa(lp857
g18
aasg4
(lp858
sa(dp859
g4
(lp860
sg77
(lp861
(lp862
g24
aa(lp863
g138
aasa(dp864
g4
(lp865
sg29
(lp866
sa(dp867
g4
(lp868
sg31
(lp869
sa(dp870
g4
(lp871
sg37
(lp872
sa(dp873
g34
(lp874
sg4
(lp875
sg37
(lp876
sa(dp877
g4
(lp878
sg224
(lp879
sa(dp880
g4
(lp881
sa(dp882
g2
(lp883
sg4
(lp884
sa(dp885
g4
(lp886
sg377
(lp887
sa(dp888
g7
(lp889
(lp890
S'margarine'
p891
aa(lp892
g51
aasg4
(lp893
sa(dp894
g7
(lp895
(lp896
g10
aa(lp897
g12
aasg4
(lp898
sa(dp899
g237
(lp900
(lp901
g18
aa(lp902
g68
ag69
aa(lp903
g71
aa(lp904
g891
aasg4
(lp905
sg77
(lp906
sa(dp907
g53
(lp908
(lp909
g752
aa(lp910
g24
ag25
aa(lp911
S'pecan'
p912
aasg4
(lp913
sa(dp914
g4
(lp915
sg29
(lp916
sa(dp917
g4
(lp918
sg31
(lp919
sa(dp920
g34
(lp921
sg4
(lp922
sg37
(lp923
sa(dp924
g4
(lp925
sa(dp926
g4
(lp927
sg224
(lp928
sa(dp929
g4
(lp930
sa(dp931
g2
(lp932
sg4
(lp933
sa(dp934
g162
(lp935
sg4
(lp936
sa(dp937
g237
(lp938
(lp939
g18
aa(lp940
g69
aa(lp941
g71
aasg4
(lp942
sa(dp943
g4
(lp944
sg109
(lp945
(lp946
g49
aa(lp947
g51
aasa(dp948
g4
(lp949
sg109
(lp950
(lp951
g10
aasa(dp952
g4
(lp953
sg77
(lp954
(lp955
g18
aasg109
(lp956
g12
asa(dp957
g4
(lp958
sg77
(lp959
(lp960
g24
aasa(dp961
g4
(lp962
sg29
(lp963
sa(dp964
S'sprinkle'
p965
(lp966
(lp967
g71
aasg4
(lp968
sa(dp969
g4
(lp970
sg31
(lp971
sa(dp972
S'slide'
p973
(lp974
sg4
(lp975
sg422
(lp976
sa(dp977
g4
(lp978
sa(dp979
g2
(lp980
sg4
(lp981
sa(dp982
g4
(lp983
sg454
(lp984
(lp985
g457
aasa(dp986
g4
(lp987
sa(dp988
g4
(lp989
sg159
(lp990
sa(dp991
g4
(lp992
sg31
(lp993
sa(dp994
g4
(lp995
sg436
(lp996
sg37
(lp997
sa(dp998
g37
(lp999
sg4
(lp1000
sg159
(lp1001
sg31
(lp1002
sa(dp1003
g4
(lp1004
sg382
(lp1005
sa(dp1006
g37
(lp1007
sg4
(lp1008
sg218
(lp1009
sa(dp1010
g4
(lp1011
sa(dp1012
g4
(lp1013
sa(dp1014
g4
(lp1015
(lp1016
g457
aasa(dp1017
g4
(lp1018
sa(dp1019
g2
(lp1020
sg4
(lp1021
sa(dp1022
g7
(lp1023
(lp1024
g51
aa(lp1025
g49
aasg4
(lp1026
sa(dp1027
g7
(lp1028
(lp1029
g10
aa(lp1030
g12
aasg4
(lp1031
sa(dp1032
g53
(lp1033
(lp1034
g18
aa(lp1035
g68
ag69
aa(lp1036
g71
aasg4
(lp1037
sa(dp1038
g15
(lp1039
(lp1040
g49
aasg4
(lp1041
sa(dp1042
g4
(lp1043
sg77
(lp1044
(lp1045
g24
aasa(dp1046
g4
(lp1047
sg29
(lp1048
sa(dp1049
g4
(lp1050
sg31
(lp1051
sa(dp1052
g34
(lp1053
sg4
(lp1054
sg37
(lp1055
sa(dp1056
g34
(lp1057
sg4
(lp1058
sg37
(lp1059
sa(dp1060
g4
(lp1061
sa(dp1062
g2
(lp1063
sg4
(lp1064
sa(dp1065
g7
(lp1066
(lp1067
g51
aa(lp1068
g71
aa(lp1069
g49
aa(lp1070
S'baking, soda'
p1071
aasg4
(lp1072
sa(dp1073
g53
(lp1074
sg15
(lp1075
(lp1076
g18
aasg4
(lp1077
sa(dp1078
g21
(lp1079
(lp1080
g24
ag25
aasg4
(lp1081
sa(dp1082
g4
(lp1083
sg29
(lp1084
sg31
(lp1085
sa(dp1086
g34
(lp1087
sg4
(lp1088
sg37
(lp1089
sa(dp1090
g4
(lp1091
sa(dp1092
g2
(lp1093
sg4
(lp1094
sa(dp1095
g162
(lp1096
sg4
(lp1097
sa(dp1098
g7
(lp1099
(lp1100
g49
aasg4
(lp1101
sa(dp1102
g7
(lp1103
sg15
(lp1104
(lp1105
g51
aa(lp1106
g71
aa(lp1107
g12
aasg4
(lp1108
sa(dp1109
g4
(lp1110
sg77
(lp1111
(lp1112
g10
aasa(dp1113
g237
(lp1114
(lp1115
g18
aa(lp1116
g68
ag69
aa(lp1117
g849
aa(lp1118
g851
aa(lp1119
S'clove'
p1120
aasg4
(lp1121
sa(dp1122
g15
(lp1123
(lp1124
g18
aa(lp1125
g49
aasg4
(lp1126
sa(dp1127
g15
(lp1128
sg4
(lp1129
(lp1130
g18
aasa(dp1131
g4
(lp1132
sg77
(lp1133
(lp1134
g752
aa(lp1135
g912
aa(lp1136
S'orange'
p1137
aS'zest'
p1138
aa(lp1139
g24
aasa(dp1140
g4
(lp1141
sg29
(lp1142
sg31
(lp1143
sa(dp1144
g4
(lp1145
sg422
(lp1146
sg37
(lp1147
sa(dp1148
g4
(lp1149
sg224
(lp1150
sa(dp1151
g4
(lp1152
sa(dp1153
g101
(lp1154
sg2
(lp1155
sg4
(lp1156
sa(dp1157
g4
(lp1158
(lp1159
g49
aasa(dp1160
g4
(lp1161
sg77
(lp1162
(lp1163
g752
aa(lp1164
g18
aa(lp1165
g68
ag69
aa(lp1166
g71
aasa(dp1167
g4
(lp1168
sg109
(lp1169
(lp1170
g90
ag51
aa(lp1171
g49
aa(lp1172
g10
aa(lp1173
g12
aasa(dp1174
g4
(lp1175
sg77
(lp1176
(lp1177
g10
aa(lp1178
g18
aasa(dp1179
g4
(lp1180
sg77
(lp1181
(lp1182
g24
ag25
aasa(dp1183
g471
(lp1184
sg4
(lp1185
sa(dp1186
g4
(lp1187
sg31
(lp1188
sa(dp1189
g34
(lp1190
sg4
(lp1191
sg37
(lp1192
sa(dp1193
g4
(lp1194
sa(dp1195
g230
(lp1196
sg2
(lp1197
sg4
(lp1198
sa(dp1199
g162
(lp1200
(lp1201
S'parchment'
p1202
aS'paper'
p1203
aasg4
(lp1204
sa(dp1205
g237
(lp1206
(lp1207
g18
aa(lp1208
g68
ag69
aa(lp1209
g71
aasg4
(lp1210
sa(dp1211
g7
(lp1212
sg4
(lp1213
sg61
(lp1214
(lp1215
g49
aa(lp1216
g51
aa(lp1217
g90
ag51
aasa(dp1218
g7
(lp1219
sg15
(lp1220
(lp1221
g10
aa(lp1222
g12
aasg4
(lp1223
sa(dp1224
g15
(lp1225
(lp1226
g18
aasg4
(lp1227
sa(dp1228
g21
(lp1229
sg15
(lp1230
(lp1231
g285
ag24
aasg4
(lp1232
sa(dp1233
g4
(lp1234
sg334
(lp1235
sS'chill'
p1236
(lp1237
sa(dp1238
g4
(lp1239
sg29
(lp1240
sa(dp1241
g4
(lp1242
sg31
(lp1243
sa(dp1244
g4
(lp1245
sg37
(lp1246
sa(dp1247
g4
(lp1248
sg301
(lp1249
sa(dp1250
g4
(lp1251
sa(dp1252
g4
(lp1253
sa(dp1254
g2
(lp1255
sg4
(lp1256
sa(dp1257
g162
(lp1258
sg4
(lp1259
sa(dp1260
g4
(lp1261
sg517
(lp1262
sg109
(lp1263
(lp1264
g18
aa(lp1265
g68
ag170
aa(lp1266
g71
aasa(dp1267
g7
(lp1268
(lp1269
S'peanut'
p1270
ag49
aa(lp1271
g49
aa(lp1272
g51
aa(lp1273
g90
ag51
aasg4
(lp1274
sa(dp1275
g7
(lp1276
(lp1277
g10
aa(lp1278
g12
ag586
aa(lp1279
g18
aasg4
(lp1280
sa(dp1281
g4
(lp1282
sg77
(lp1283
(lp1284
g24
aa(lp1285
S'butterfinger'
p1286
aS'candy'
p1287
aasa(dp1288
g4
(lp1289
sg159
(lp1290
(lp1291
g51
aasa(dp1292
g4
(lp1293
sg352
(lp1294
sg540
(lp1295
sa(dp1296
g4
(lp1297
sg352
(lp1298
(lp1299
g51
aasa(dp1300
g83
(lp1301
sg4
(lp1302
sa(dp1303
g4
(lp1304
sg31
(lp1305
sa(dp1306
g34
(lp1307
sg4
(lp1308
sg37
(lp1309
sa(dp1310
g4
(lp1311
sa(dp1312
g4
(lp1313
sa(dp1314
g2
(lp1315
sg4
(lp1316
sa(dp1317
g162
(lp1318
sg4
(lp1319
sS'spray'
p1320
(lp1321
sa(dp1322
g4
(lp1323
sg416
(lp1324
sa(dp1325
g61
(lp1326
(lp1327
g12
aa(lp1328
g520
aa(lp1329
S'cannellini'
p1330
ag262
aa(lp1331
S'agave'
p1332
aS'syrup'
p1333
aasg4
(lp1334
sg517
(lp1335
sa(dp1336
g7
(lp1337
(lp1338
g10
aasg4
(lp1339
sg540
(lp1340
sa(dp1341
g7
(lp1342
(lp1343
S'splenda'
p1344
aasg4
(lp1345
sa(dp1346
g7
(lp1347
sg4
(lp1348
sg301
(lp1349
g64
asa(dp1350
g15
(lp1351
sg4
(lp1352
sa(dp1353
g4
(lp1354
sg517
(lp1355
sa(dp1356
g21
(lp1357
(lp1358
g10
aasg4
(lp1359
sa(dp1360
g15
(lp1361
(lp1362
S'cacao'
p1363
aS'nibs'
p1364
aasg4
(lp1365
sa(dp1366
g21
(lp1367
(lp1368
g520
aa(lp1369
S'cacao nibs'
p1370
aasa(dp1371
g4
(lp1372
sg29
(lp1373
sa(dp1374
g4
(lp1375
sS'spread'
p1376
(lp1377
sg540
(lp1378
sa(dp1379
g965
(lp1380
(lp1381
g24
aasg4
(lp1382
sa(dp1383
g419
(lp1384
sg4
(lp1385
sg31
(lp1386
sa(dp1387
g34
(lp1388
sg4
(lp1389
sg37
(lp1390
sa(dp1391
g4
(lp1392
sa(dp1393
g4
(lp1394
sa(dp1395
g4
(lp1396
sa(dp1397
g4
(lp1398
sa(dp1399
g4
(lp1400
sa(dp1401
g4
(lp1402
sa(dp1403
g4
(lp1404
sa(dp1405
g4
(lp1406
sa(dp1407
g4
(lp1408
sa(dp1409
g4
(lp1410
sa(dp1411
g4
(lp1412
sa(dp1413
g4
(lp1414
sa(dp1415
g4
(lp1416
sa(dp1417
g4
(lp1418
sa(dp1419
g4
(lp1420
sa(dp1421
g4
(lp1422
sa(dp1423
g4
(lp1424
sa(dp1425
g4
(lp1426
sa(dp1427
g101
(lp1428
sg2
(lp1429
sg4
(lp1430
sa(dp1431
g4
(lp1432
(lp1433
g49
aasa(dp1434
g77
(lp1435
(lp1436
g752
aa(lp1437
g18
aa(lp1438
g68
ag69
aa(lp1439
g71
aa(lp1440
g1138
aasg4
(lp1441
sg61
(lp1442
sa(dp1443
g4
(lp1444
sg109
(lp1445
(lp1446
g90
ag51
aa(lp1447
g49
aa(lp1448
g10
aa(lp1449
g12
aa(lp1450
g1138
aasa(dp1451
g4
(lp1452
sg77
(lp1453
(lp1454
g10
aa(lp1455
g18
aasa(dp1456
g4
(lp1457
sg77
(lp1458
(lp1459
g24
ag25
aasa(dp1460
g471
(lp1461
sg4
(lp1462
sa(dp1463
g4
(lp1464
sg31
(lp1465
sa(dp1466
g34
(lp1467
sg4
(lp1468
sg37
(lp1469
sa(dp1470
g4
(lp1471
sa(dp1472
g2
(lp1473
sg4
(lp1474
sg159
(lp1475
sa(dp1476
S'rub'
p1477
(lp1478
(lp1479
g49
aasS'use'
p1480
(lp1481
sg4
(lp1482
sa(dp1483
g4
(lp1484
sg416
(lp1485
sa(dp1486
g101
(lp1487
(lp1488
g49
aa(lp1489
g1270
ag49
aa(lp1490
g51
aasg4
(lp1491
sa(dp1492
g7
(lp1493
sg4
(lp1494
sa(dp1495
g7
(lp1496
sg15
(lp1497
(lp1498
g10
aa(lp1499
g12
aasg4
(lp1500
sa(dp1501
g7
(lp1502
sg15
(lp1503
(lp1504
g18
aa(lp1505
g68
ag170
aa(lp1506
g68
ag69
aa(lp1507
g71
aasg4
(lp1508
sa(dp1509
g53
(lp1510
sg15
(lp1511
(lp1512
g24
aasg4
(lp1513
sS'tip'
p1514
(lp1515
(lp1516
g1270
ag49
aa(lp1517
g1270
aasa(dp1518
g546
(lp1519
sg4
(lp1520
sg352
(lp1521
sa(dp1522
g4
(lp1523
sg159
(lp1524
sa(dp1525
g4
(lp1526
sg1376
(lp1527
sg538
(lp1528
sa(dp1529
g4
(lp1530
sg31
(lp1531
sa(dp1532
g4
(lp1533
sa(dp1534
g4
(lp1535
sg422
(lp1536
sg37
(lp1537
sa(dp1538
g34
(lp1539
sg4
(lp1540
sa(dp1541
g4
(lp1542
sS'melt'
p1543
(lp1544
sg37
(lp1545
sa(dp1546
g4
(lp1547
sg224
(lp1548
sa(dp1549
g618
(lp1550
sg4
(lp1551
(lp1552
g24
aasa(dp1553
g83
(lp1554
(lp1555
g24
aasg618
(lp1556
sg4
(lp1557
sa(dp1558
g4
(lp1559
sg471
(lp1560
sg1376
(lp1561
(lp1562
g24
aasa(dp1563
g4
(lp1564
sg37
(lp1565
sa(dp1566
g4
(lp1567
(lp1568
g24
aasa(dp1569
g2
(lp1570
sg4
(lp1571
sa(dp1572
g162
(lp1573
sg4
(lp1574
sa(dp1575
g237
(lp1576
(lp1577
g18
aa(lp1578
g520
aa(lp1579
g68
ag170
aa(lp1580
g71
aasg4
(lp1581
sa(dp1582
S'chop'
p1583
(lp1584
(lp1585
g24
aasg4
(lp1586
sa(dp1587
g4
(lp1588
sg416
(lp1589
sg1543
(lp1590
(lp1591
g49
aa(lp1592
g24
aasa(dp1593
g4
(lp1594
sg77
(lp1595
(lp1596
g51
aasg422
(lp1597
(lp1598
g24
aasa(dp1599
g4
(lp1600
sg77
(lp1601
(lp1602
g18
aa(lp1603
g10
aasa(dp1604
g4
(lp1605
sg1236
(lp1606
sa(dp1607
g4
(lp1608
sg29
(lp1609
(lp1610
g24
aasa(dp1611
g4
(lp1612
sg31
(lp1613
sa(dp1614
g34
(lp1615
sg4
(lp1616
sg37
(lp1617
sa(dp1618
g471
(lp1619
sg4
(lp1620
sa(dp1621
g4
(lp1622
sa(dp1623
g4
(lp1624
sa(dp1625
g101
(lp1626
sg2
(lp1627
sg4
(lp1628
sa(dp1629
g162
(lp1630
sg4
(lp1631
sa.