(lp0
(dp1
S'#no-action#'
p2
(lp3
sS'combine'
p4
(lp5
(lp6
S'egg'
p7
aa(lp8
S'soy'
p9
aS'milk'
p10
aa(lp11
S'vanilla'
p12
aa(lp13
S'cinnamon'
p14
aasa(dp15
g2
(lp16
sS'overlap'
p17
(lp18
(lp19
S'banana'
p20
aasa(dp21
g2
(lp22
sS'place'
p23
(lp24
(lp25
S'bread'
p26
aasa(dp27
g2
(lp28
sS'dip'
p29
(lp30
(lp31
g7
aasa(dp32
S'heat'
p33
(lp34
(lp35
S'skillet'
p36
aasg2
(lp37
sS'spray'
p38
(lp39
(lp40
S'cooking'
p41
ag38
aasa(dp42
S'cook'
p43
(lp44
sg2
(lp45
sg23
(lp46
sa(dp47
g43
(lp48
sg2
(lp49
sS'flip'
p50
(lp51
sa(dp52
g2
(lp53
sa(dp54
g43
(lp55
sg2
(lp56
sg23
(lp57
(lp58
S'bacon'
p59
aasa(dp60
g2
(lp61
sS'drain'
p62
(lp63
(lp64
g59
aasa(dp65
S'break'
p66
(lp67
sg2
(lp68
sa(dp69
g33
(lp70
(lp71
S'oil'
p72
aasg2
(lp73
sa(dp74
g2
(lp75
sS'whisk'
p76
(lp77
(lp78
g10
aa(lp79
g7
aa(lp80
S'nutmeg'
p81
aasa(dp82
g2
(lp83
sg29
(lp84
(lp85
g26
aa(lp86
g7
aasa(dp87
g43
(lp88
(lp89
g26
aa(lp90
g7
aasg2
(lp91
sa(dp92
S'transfer'
p93
(lp94
sg2
(lp95
sS'turn'
p96
(lp97
sa(dp98
g2
(lp99
sS'top'
p100
(lp101
(lp102
S'turkey'
p103
aa(lp104
S'provolone'
p105
aS'cheese'
p106
aa(lp107
g59
aasS'spread'
p108
(lp109
(lp110
S'cranberry'
p111
aS'sauce'
p112
aasa(dp113
g2
(lp114
sg108
(lp115
(lp116
S'mustard'
p117
aasS'lay'
p118
(lp119
(lp120
g59
aasa(dp121
g43
(lp122
(lp123
g106
aasg2
(lp124
sa(dp125
g2
(lp126
sa(dp127
g2
(lp128
sg4
(lp129
(lp130
g7
aa(lp131
g9
ag10
aa(lp132
g12
aa(lp133
g14
aasa(dp134
g2
(lp135
sg17
(lp136
(lp137
g20
aasa(dp138
g2
(lp139
sg23
(lp140
(lp141
g26
aasa(dp142
g2
(lp143
sg29
(lp144
(lp145
g7
aasa(dp146
g33
(lp147
(lp148
g36
aasg2
(lp149
sg38
(lp150
(lp151
g41
ag38
aasa(dp152
g43
(lp153
sg2
(lp154
sg23
(lp155
sa(dp156
g43
(lp157
sg2
(lp158
sg50
(lp159
sa(dp160
g2
(lp161
sa(dp162
g43
(lp163
sg2
(lp164
sg23
(lp165
(lp166
g59
aasa(dp167
g2
(lp168
sg62
(lp169
(lp170
g59
aasa(dp171
g66
(lp172
sg2
(lp173
sa(dp174
g33
(lp175
(lp176
g72
aasg2
(lp177
sa(dp178
g2
(lp179
sg76
(lp180
(lp181
g10
aa(lp182
g7
aa(lp183
g81
aasa(dp184
g2
(lp185
sg29
(lp186
(lp187
g26
aa(lp188
g7
aasa(dp189
g43
(lp190
(lp191
g26
aasg2
(lp192
sa(dp193
g93
(lp194
sg2
(lp195
sg96
(lp196
sa(dp197
g2
(lp198
sg100
(lp199
(lp200
g103
aa(lp201
g105
ag106
aa(lp202
g59
aasg108
(lp203
(lp204
g111
ag112
aasa(dp205
g2
(lp206
sg108
(lp207
(lp208
g117
aasg118
(lp209
(lp210
g59
aasa(dp211
g43
(lp212
(lp213
g106
aasg2
(lp214
sa(dp215
g2
(lp216
sa(dp217
g2
(lp218
sg76
(lp219
(lp220
g7
aa(lp221
g10
aa(lp222
S'sugar'
p223
aa(lp224
g12
aasa(dp225
g33
(lp226
(lp227
g72
aasg2
(lp228
sa(dp229
S'fry'
p230
(lp231
sg2
(lp232
sg29
(lp233
(lp234
g26
aa(lp235
g7
aasa(dp236
g2
(lp237
sS'repeat'
p238
(lp239
sa(dp240
g2
(lp241
(lp242
g10
aa(lp243
S'custard'
p244
aS'powder'
p245
aasS'stir'
p246
(lp247
sa(dp248
g2
(lp249
sS'boil'
p250
(lp251
(lp252
g10
aasa(dp253
g2
(lp254
sg246
(lp255
(lp256
g244
aasa(dp257
g43
(lp258
(lp259
g244
aasg2
(lp260
sS'reduce'
p261
(lp262
sa(dp263
g2
(lp264
sg23
(lp265
(lp266
g26
aasa(dp267
g2
(lp268
sg108
(lp269
(lp270
g244
aasa(dp271
g2
(lp272
sS'cover'
p273
(lp274
sS'form'
p275
(lp276
sa(dp277
S'dust'
p278
(lp279
(lp280
g223
aasg2
(lp281
sa(dp282
g100
(lp283
(lp284
S'cream'
p285
aa(lp286
S'strawberry'
p287
aasg2
(lp288
sa(dp289
S'insert'
p290
(lp291
(lp292
S'toothpick'
p293
aasg2
(lp294
sa(dp295
g2
(lp296
sa(dp297
g43
(lp298
sg2
(lp299
sg4
(lp300
(lp301
g285
ag106
aa(lp302
S'jam'
p303
aasa(dp304
g2
(lp305
sg246
(lp306
sa(dp307
g2
(lp308
sg76
(lp309
(lp310
g10
aa(lp311
g7
aa(lp312
g12
aa(lp313
g14
aasa(dp314
g2
(lp315
sg29
(lp316
(lp317
g26
aa(lp318
g7
aasa(dp319
g33
(lp320
sg2
(lp321
sS'add'
p322
(lp323
(lp324
g26
aasa(dp325
g43
(lp326
sg2
(lp327
sa(dp328
S'spoon'
p329
(lp330
(lp331
g285
ag106
aasg2
(lp332
sg273
(lp333
sa(dp334
g43
(lp335
sg2
(lp336
sa(dp337
g2
(lp338
sa(dp339
g2
(lp340
sg76
(lp341
(lp342
g7
aa(lp343
g10
aa(lp344
g223
aa(lp345
g12
aasa(dp346
g33
(lp347
(lp348
g72
aasg2
(lp349
sa(dp350
g230
(lp351
sg2
(lp352
sg29
(lp353
(lp354
g26
aa(lp355
g7
aasa(dp356
g2
(lp357
sg238
(lp358
sa(dp359
g246
(lp360
sg2
(lp361
sg4
(lp362
(lp363
g10
aa(lp364
g244
ag245
aasa(dp365
g2
(lp366
sg250
(lp367
(lp368
g10
aasa(dp369
g2
(lp370
sg246
(lp371
(lp372
g244
aasa(dp373
g43
(lp374
(lp375
g244
aasg2
(lp376
sg261
(lp377
sa(dp378
g2
(lp379
sg23
(lp380
(lp381
g26
aasa(dp382
g2
(lp383
sg108
(lp384
(lp385
g244
aasa(dp386
g2
(lp387
sg273
(lp388
sg275
(lp389
sa(dp390
g278
(lp391
(lp392
g223
aasg2
(lp393
sa(dp394
g100
(lp395
(lp396
g285
aa(lp397
g287
aasg2
(lp398
sa(dp399
g290
(lp400
(lp401
g293
aasg2
(lp402
sa(dp403
g2
(lp404
sa(dp405
g2
(lp406
sg23
(lp407
(lp408
S'yeast'
p409
aa(lp410
S'water'
p411
aasg76
(lp412
sa(dp413
g322
(lp414
(lp415
S'flour'
p416
aa(lp417
S'salt'
p418
aasg2
(lp419
sa(dp420
S'knead'
p421
(lp422
sg2
(lp423
sa(dp424
g322
(lp425
(lp426
g416
aasg2
(lp427
sg421
(lp428
sa(dp429
g93
(lp430
sg2
(lp431
sg275
(lp432
sa(dp433
g2
(lp434
sg23
(lp435
sa(dp436
g2
(lp437
sS'drizzle'
p438
(lp439
(lp440
g72
aasa(dp441
g2
(lp442
sg108
(lp443
(lp444
g72
aasa(dp445
g2
(lp446
sg273
(lp447
sa(dp448
g93
(lp449
sg2
(lp450
sa(dp451
g2
(lp452
sS'cut'
p453
(lp454
sa(dp455
g2
(lp456
sS'roll'
p457
(lp458
sa(dp459
g2
(lp460
sg273
(lp461
sa(dp462
g2
(lp463
sS'flatten'
p464
(lp465
sa(dp466
g2
(lp467
sg457
(lp468
sg275
(lp469
sa(dp470
g93
(lp471
sg2
(lp472
sg273
(lp473
sa(dp474
S'preheat'
p475
(lp476
sg2
(lp477
sa(dp478
g2
(lp479
sg23
(lp480
(lp481
g411
aasa(dp482
g2
(lp483
sS'score'
p484
(lp485
sa(dp486
S'spritz'
p487
(lp488
(lp489
g411
aasg2
(lp490
sa(dp491
g2
(lp492
sS'bake'
p493
(lp494
sa(dp495
g487
(lp496
sg2
(lp497
sa(dp498
g2
(lp499
sg493
(lp500
sa(dp501
g93
(lp502
sg2
(lp503
sS'cool'
p504
(lp505
sa(dp506
g2
(lp507
sa(dp508
g43
(lp509
sg2
(lp510
sg4
(lp511
(lp512
g285
ag106
aa(lp513
g303
aasa(dp514
g2
(lp515
sg246
(lp516
sa(dp517
g2
(lp518
sg76
(lp519
(lp520
g10
aa(lp521
g7
aa(lp522
g12
aa(lp523
g14
aasa(dp524
g2
(lp525
sg29
(lp526
(lp527
g26
aa(lp528
g7
aasa(dp529
g33
(lp530
sg2
(lp531
sg322
(lp532
(lp533
g26
aasa(dp534
g43
(lp535
sg2
(lp536
sa(dp537
g329
(lp538
(lp539
g285
ag106
aasg2
(lp540
sg273
(lp541
sa(dp542
g43
(lp543
sg2
(lp544
sa(dp545
g2
(lp546
sa(dp547
g2
(lp548
sg23
(lp549
(lp550
g409
aa(lp551
g411
aasg76
(lp552
sa(dp553
g322
(lp554
(lp555
g416
aa(lp556
g418
aasg2
(lp557
sa(dp558
g421
(lp559
sg2
(lp560
sa(dp561
g322
(lp562
(lp563
g416
aasg2
(lp564
sg421
(lp565
sa(dp566
g93
(lp567
sg2
(lp568
sg275
(lp569
sa(dp570
g2
(lp571
sg23
(lp572
sa(dp573
g2
(lp574
sg438
(lp575
(lp576
g72
aasa(dp577
g2
(lp578
sg108
(lp579
(lp580
g72
aasa(dp581
g2
(lp582
sg273
(lp583
sa(dp584
g93
(lp585
sg2
(lp586
sa(dp587
g2
(lp588
sg453
(lp589
sg275
(lp590
sa(dp591
g2
(lp592
sg457
(lp593
sa(dp594
g2
(lp595
sg273
(lp596
sa(dp597
g2
(lp598
sg464
(lp599
sa(dp600
g2
(lp601
sg457
(lp602
sg275
(lp603
sa(dp604
g93
(lp605
sg2
(lp606
sg273
(lp607
sa(dp608
g475
(lp609
sg2
(lp610
sa(dp611
g2
(lp612
sg23
(lp613
(lp614
g411
aasa(dp615
g2
(lp616
sg484
(lp617
sa(dp618
g487
(lp619
(lp620
g411
aasg2
(lp621
sa(dp622
g2
(lp623
sg493
(lp624
sa(dp625
g487
(lp626
sg2
(lp627
sS'rotate'
p628
(lp629
sa(dp630
g2
(lp631
sg493
(lp632
sa(dp633
g93
(lp634
sg2
(lp635
sg504
(lp636
sa(dp637
g2
(lp638
sa(dp639
g2
(lp640
sg453
(lp641
(lp642
S'onion'
p643
aa(lp644
S'carrot'
p645
aa(lp646
S'celery'
p647
aasS'pulse'
p648
(lp649
sa(dp650
g43
(lp651
(lp652
S'smoked'
p653
aS'sausage'
p654
aasg33
(lp655
sg2
(lp656
sa(dp657
g43
(lp658
sg322
(lp659
(lp660
g643
aa(lp661
g645
aa(lp662
g647
aasg2
(lp663
sa(dp664
g43
(lp665
sg322
(lp666
(lp667
S'ketchup'
p668
aa(lp669
S'worcestershire'
p670
ag112
aa(lp671
S'brown'
p672
ag223
aasg2
(lp673
sa(dp674
g329
(lp675
(lp676
S'bun'
p677
aa(lp678
g106
aasg2
(lp679
sS'serve'
p680
(lp681
sa(dp682
g2
(lp683
sa(dp684
g475
(lp685
sg2
(lp686
sa(dp687
g2
(lp688
sa(dp689
S'toss'
p690
(lp691
(lp692
S'daikon'
p693
aa(lp694
g645
aa(lp695
S'rice'
p696
aS'vinegar'
p697
aasg2
(lp698
sa(dp699
g2
(lp700
sa(dp701
S'refrigerate'
p702
(lp703
sg2
(lp704
sS'set'
p705
(lp706
sg62
(lp707
sa(dp708
S'mix'
p709
(lp710
(lp711
S'mayonnaise'
p712
aa(lp713
S'hoisin'
p714
ag112
aa(lp715
S'sriracha'
p716
aasg2
(lp717
sa(dp718
g2
(lp719
sS'open'
p720
(lp721
sS'split'
p722
(lp723
(lp724
g457
aasa(dp725
S'pull'
p726
(lp727
sg2
(lp728
sa(dp729
g2
(lp730
sg108
(lp731
(lp732
g457
aasa(dp733
g2
(lp734
sg453
(lp735
sg93
(lp736
(lp737
g457
aasa(dp738
g2
(lp739
sg493
(lp740
sa(dp741
g2
(lp742
sg23
(lp743
(lp744
S'pork'
p745
aa(lp746
S'pate'
p747
aa(lp748
S'cucumber'
p749
aa(lp750
g645
aa(lp751
S'jalapeno'
p752
aa(lp753
S'cilantro'
p754
aS'leaf'
p755
aa(lp756
g457
aasa(dp757
g2
(lp758
sg453
(lp759
sg680
(lp760
sa(dp761
g2
(lp762
sa(dp763
g2
(lp764
sg453
(lp765
(lp766
g643
aa(lp767
g645
aa(lp768
g647
aasg648
(lp769
sa(dp770
g43
(lp771
(lp772
g653
ag654
aa(lp773
g672
aasg33
(lp774
sg2
(lp775
sa(dp776
g43
(lp777
sg322
(lp778
(lp779
g643
aa(lp780
g645
aa(lp781
g647
aasg2
(lp782
sa(dp783
g43
(lp784
sg322
(lp785
(lp786
g668
aa(lp787
g670
ag112
aa(lp788
g672
ag223
aasg2
(lp789
sa(dp790
g329
(lp791
(lp792
g677
aa(lp793
g106
aasg2
(lp794
sg680
(lp795
sa(dp796
g2
(lp797
sa(dp798
g475
(lp799
sg2
(lp800
sa(dp801
S'line'
p802
(lp803
sg2
(lp804
sa(dp805
g690
(lp806
(lp807
g645
aa(lp808
g696
ag697
aasg2
(lp809
sa(dp810
g2
(lp811
sa(dp812
g702
(lp813
sg2
(lp814
sg705
(lp815
sg62
(lp816
sa(dp817
g709
(lp818
(lp819
g712
aa(lp820
g714
ag112
aa(lp821
g716
aasg2
(lp822
sa(dp823
g2
(lp824
sg720
(lp825
sg722
(lp826
(lp827
g457
aasa(dp828
g726
(lp829
sg2
(lp830
sa(dp831
g2
(lp832
sg108
(lp833
(lp834
g457
aasa(dp835
g2
(lp836
sg453
(lp837
sg93
(lp838
(lp839
g457
aasa(dp840
g2
(lp841
sg493
(lp842
sa(dp843
g2
(lp844
sg23
(lp845
(lp846
g745
aa(lp847
g747
aa(lp848
g749
aa(lp849
g645
aa(lp850
g752
aa(lp851
g754
ag755
aa(lp852
g457
aasa(dp853
g2
(lp854
sg453
(lp855
sg680
(lp856
sa(dp857
g2
(lp858
sa(dp859
g475
(lp860
sg2
(lp861
sa(dp862
S'grill'
p863
(lp864
(lp865
S'red'
p866
aa(lp867
S'pepper'
p868
aasg2
(lp869
sa(dp870
g93
(lp871
sg2
(lp872
sa(dp873
g2
(lp874
sg23
(lp875
(lp876
S'tomato'
p877
aa(lp878
S'garlic'
p879
aasa(dp880
g2
(lp881
sS'blend'
p882
(lp883
(lp884
g868
aasa(dp885
S'season'
p886
(lp887
(lp888
S'oregano'
p889
aa(lp890
g418
aa(lp891
g868
aasg2
(lp892
sa(dp893
g863
(lp894
(lp895
S'eggplant'
p896
aa(lp897
S'zucchini'
p898
aa(lp899
g877
aa(lp900
g643
aasg2
(lp901
sa(dp902
g2
(lp903
sg108
(lp904
sg438
(lp905
(lp906
S'olive'
p907
ag72
aa(lp908
g26
aasg50
(lp909
sa(dp910
g322
(lp911
(lp912
S'mozzarella'
p913
ag106
aasg2
(lp914
sg23
(lp915
(lp916
g26
aasa(dp917
g100
(lp918
(lp919
g896
aa(lp920
g913
ag106
aasg2
(lp921
sa(dp922
g2
(lp923
sg23
(lp924
(lp925
g26
aasa(dp926
g863
(lp927
(lp928
g106
aasg2
(lp929
sa(dp930
g2
(lp931
sa(dp932
g475
(lp933
sg2
(lp934
sa(dp935
g863
(lp936
(lp937
g866
aa(lp938
g868
aasg2
(lp939
sa(dp940
g93
(lp941
sg2
(lp942
sa(dp943
g2
(lp944
sg23
(lp945
(lp946
g877
aa(lp947
g879
aasa(dp948
g2
(lp949
sg882
(lp950
(lp951
g868
aasa(dp952
g886
(lp953
(lp954
g889
aa(lp955
g418
aa(lp956
g868
aasg2
(lp957
sa(dp958
g863
(lp959
(lp960
g896
aa(lp961
g898
aa(lp962
g877
aa(lp963
g643
aasg2
(lp964
sS'slice'
p965
(lp966
sa(dp967
g2
(lp968
sg108
(lp969
sg438
(lp970
(lp971
g907
ag72
aa(lp972
g26
aasg50
(lp973
sa(dp974
g322
(lp975
(lp976
g913
ag106
aasg2
(lp977
sg23
(lp978
(lp979
g26
aasa(dp980
g100
(lp981
(lp982
g896
aa(lp983
g913
ag106
aasg2
(lp984
sa(dp985
g2
(lp986
sg23
(lp987
(lp988
g26
aasa(dp989
g863
(lp990
(lp991
g106
aasg2
(lp992
sa(dp993
g2
(lp994
sa(dp995
g43
(lp996
sg2
(lp997
sg23
(lp998
(lp999
g59
aasa(dp1000
g2
(lp1001
sg62
(lp1002
sa(dp1003
g2
(lp1004
sg705
(lp1005
sS'crumble'
p1006
(lp1007
sa(dp1008
g33
(lp1009
sg2
(lp1010
sg38
(lp1011
(lp1012
g41
aasa(dp1013
g2
(lp1014
sS'crack'
p1015
(lp1016
(lp1017
g7
aa(lp1018
g418
aa(lp1019
g868
aasa(dp1020
g43
(lp1021
(lp1022
g7
aasg2
(lp1023
sa(dp1024
g2
(lp1025
sg50
(lp1026
(lp1027
g7
aasa(dp1028
S'sprinkle'
p1029
(lp1030
(lp1031
g59
aa(lp1032
S'cheddar'
p1033
ag106
aa(lp1034
g7
aasg2
(lp1035
sa(dp1036
g43
(lp1037
(lp1038
g106
aasg2
(lp1039
sa(dp1040
g2
(lp1041
sg23
(lp1042
(lp1043
g7
aasa(dp1044
g93
(lp1045
sg2
(lp1046
sa(dp1047
g2
(lp1048
sa(dp1049
g43
(lp1050
sg2
(lp1051
sg23
(lp1052
(lp1053
g59
aasa(dp1054
g2
(lp1055
sg62
(lp1056
sa(dp1057
g2
(lp1058
sg705
(lp1059
sg1006
(lp1060
sa(dp1061
g33
(lp1062
sg2
(lp1063
sg38
(lp1064
(lp1065
g41
aa(lp1066
g38
aasa(dp1067
g886
(lp1068
(lp1069
g418
aasg2
(lp1070
sg1015
(lp1071
(lp1072
g7
aasa(dp1073
g43
(lp1074
(lp1075
g7
aasg2
(lp1076
sa(dp1077
g2
(lp1078
sg50
(lp1079
(lp1080
g7
aasa(dp1081
g1029
(lp1082
(lp1083
g59
aa(lp1084
g1033
ag106
aa(lp1085
g7
aasg2
(lp1086
sa(dp1087
g43
(lp1088
(lp1089
g106
aasg2
(lp1090
sa(dp1091
g2
(lp1092
sg23
(lp1093
(lp1094
g7
aasa(dp1095
g93
(lp1096
sg2
(lp1097
sa(dp1098
g2
(lp1099
sa(dp1100
g2
(lp1101
sS'roast'
p1102
(lp1103
(lp1104
g745
aasa(dp1105
g2
(lp1106
sg965
(lp1107
g745
asa(dp1108
g33
(lp1109
(lp1110
S'sandwich'
p1111
aasg2
(lp1112
sa(dp1113
g2
(lp1114
sg246
(lp1115
(lp1116
g712
aa(lp1117
S'caper'
p1118
aa(lp1119
S'lemon'
p1120
ag868
aasa(dp1121
g2
(lp1122
sS'brush'
p1123
(lp1124
(lp1125
g26
aa(lp1126
g907
ag72
aasa(dp1127
g2
(lp1128
sg108
(lp1129
(lp1130
g26
aa(lp1131
g712
aasa(dp1132
S'layer'
p1133
(lp1134
(lp1135
S'arugula'
p1136
aa(lp1137
S'havarti'
p1138
aa(lp1139
g712
aasg2
(lp1140
sa(dp1141
g100
(lp1142
(lp1143
g26
aasg2
(lp1144
sa(dp1145
g2
(lp1146
(lp1147
g907
ag72
aasa(dp1148
g2
(lp1149
sg23
(lp1150
(lp1151
g1111
aasa(dp1152
g43
(lp1153
(lp1154
g26
aa(lp1155
g106
aasg2
(lp1156
sa(dp1157
g2
(lp1158
sg453
(lp1159
sg680
(lp1160
sa(dp1161
g2
(lp1162
sa(dp1163
g2
(lp1164
sg1102
(lp1165
(lp1166
g745
aasa(dp1167
g2
(lp1168
sg965
(lp1169
sa(dp1170
g33
(lp1171
sg2
(lp1172
sa(dp1173
g2
(lp1174
sg246
(lp1175
(lp1176
g712
aa(lp1177
g1118
aa(lp1178
g1120
ag868
aasa(dp1179
g2
(lp1180
sg1123
(lp1181
(lp1182
g26
aa(lp1183
g907
ag72
aasa.