(lp0
(dp1
S'#no-action#'
p2
(lp3
sS'combine'
p4
(lp5
(lp6
S'egg'
p7
aa(lp8
S'soy'
p9
aS'milk'
p10
aa(lp11
S'vanilla'
p12
aa(lp13
S'cinnamon'
p14
aasa(dp15
g2
(lp16
sS'overlap'
p17
(lp18
(lp19
S'banana'
p20
aasa(dp21
g2
(lp22
sS'place'
p23
(lp24
(lp25
S'bread'
p26
aasa(dp27
g2
(lp28
sS'dip'
p29
(lp30
(lp31
g7
aasa(dp32
S'heat'
p33
(lp34
(lp35
S'skillet'
p36
aasg2
(lp37
sS'spray'
p38
(lp39
(lp40
S'cooking'
p41
ag38
aasa(dp42
S'cook'
p43
(lp44
sg2
(lp45
sg23
(lp46
sa(dp47
g43
(lp48
sg2
(lp49
sS'flip'
p50
(lp51
sa(dp52
g2
(lp53
sa(dp54
g43
(lp55
sg2
(lp56
sg23
(lp57
(lp58
S'bacon'
p59
aasa(dp60
g2
(lp61
sS'drain'
p62
(lp63
(lp64
g59
aasa(dp65
S'break'
p66
(lp67
sg2
(lp68
sa(dp69
g33
(lp70
(lp71
S'oil'
p72
aasg2
(lp73
sa(dp74
g2
(lp75
sS'whisk'
p76
(lp77
(lp78
g10
aa(lp79
g7
aa(lp80
S'nutmeg'
p81
aasa(dp82
g2
(lp83
sg29
(lp84
(lp85
g26
aa(lp86
g7
aasa(dp87
g43
(lp88
(lp89
g26
aa(lp90
g7
aasg2
(lp91
sa(dp92
S'transfer'
p93
(lp94
sg2
(lp95
sS'turn'
p96
(lp97
sa(dp98
g2
(lp99
sS'top'
p100
(lp101
(lp102
S'turkey'
p103
aa(lp104
S'provolone'
p105
aS'cheese'
p106
aa(lp107
g59
aasS'spread'
p108
(lp109
(lp110
S'cranberry'
p111
aS'sauce'
p112
aasa(dp113
g2
(lp114
sg108
(lp115
(lp116
S'mustard'
p117
aasS'lay'
p118
(lp119
(lp120
g59
aasa(dp121
g43
(lp122
(lp123
g106
aasg2
(lp124
sa(dp125
g2
(lp126
sa(dp127
g2
(lp128
sg4
(lp129
(lp130
g7
aa(lp131
g9
ag10
aa(lp132
g12
aa(lp133
g14
aasa(dp134
g2
(lp135
sg17
(lp136
(lp137
g20
aasa(dp138
g2
(lp139
sg23
(lp140
(lp141
g26
aasa(dp142
g2
(lp143
sg29
(lp144
(lp145
g7
aasa(dp146
g33
(lp147
(lp148
g36
aasg2
(lp149
sg38
(lp150
(lp151
g41
ag38
aasa(dp152
g43
(lp153
sg2
(lp154
sg23
(lp155
sa(dp156
g43
(lp157
sg2
(lp158
sg50
(lp159
sa(dp160
g2
(lp161
sa(dp162
g43
(lp163
sg2
(lp164
sg23
(lp165
(lp166
g59
aasa(dp167
g2
(lp168
sg62
(lp169
(lp170
g59
aasa(dp171
g66
(lp172
sg2
(lp173
sa(dp174
g33
(lp175
(lp176
g72
aasg2
(lp177
sa(dp178
g2
(lp179
sg76
(lp180
(lp181
g10
aa(lp182
g7
aa(lp183
g81
aasa(dp184
g2
(lp185
sg29
(lp186
(lp187
g26
aa(lp188
g7
aasa(dp189
g43
(lp190
(lp191
g26
aasg2
(lp192
sa(dp193
g93
(lp194
sg2
(lp195
sg96
(lp196
sa(dp197
g2
(lp198
sg100
(lp199
(lp200
g103
aa(lp201
g105
ag106
aa(lp202
g59
aasg108
(lp203
(lp204
g111
ag112
aasa(dp205
g2
(lp206
sg108
(lp207
(lp208
g117
aasg118
(lp209
(lp210
g59
aasa(dp211
g43
(lp212
(lp213
g106
aasg2
(lp214
sa(dp215
g2
(lp216
sa(dp217
g2
(lp218
sg76
(lp219
(lp220
g7
aa(lp221
g10
aa(lp222
S'sugar'
p223
aa(lp224
g12
aasa(dp225
g33
(lp226
(lp227
g72
aasg2
(lp228
sa(dp229
S'fry'
p230
(lp231
sg2
(lp232
sg29
(lp233
(lp234
g26
aa(lp235
g7
aasa(dp236
g2
(lp237
sS'repeat'
p238
(lp239
sa(dp240
g2
(lp241
(lp242
g10
aa(lp243
S'custard'
p244
aS'powder'
p245
aasS'stir'
p246
(lp247
sa(dp248
g2
(lp249
sS'boil'
p250
(lp251
(lp252
g10
aasa(dp253
g2
(lp254
sg246
(lp255
(lp256
g244
aasa(dp257
g2
(lp258
sS'reduce'
p259
(lp260
(lp261
g244
aasa(dp262
g2
(lp263
sg23
(lp264
(lp265
g26
aasa(dp266
g2
(lp267
sg108
(lp268
(lp269
g244
aasa(dp270
g2
(lp271
sS'cover'
p272
(lp273
sS'form'
p274
(lp275
sa(dp276
S'dust'
p277
(lp278
(lp279
g223
aasg2
(lp280
sa(dp281
g100
(lp282
(lp283
S'cream'
p284
aa(lp285
S'strawberry'
p286
aasg2
(lp287
sa(dp288
S'insert'
p289
(lp290
(lp291
S'toothpick'
p292
aasg2
(lp293
sa(dp294
g2
(lp295
sa(dp296
g43
(lp297
sg2
(lp298
sg4
(lp299
(lp300
g284
ag106
aa(lp301
S'jam'
p302
aasa(dp303
g2
(lp304
sg246
(lp305
sa(dp306
g2
(lp307
sg76
(lp308
(lp309
g10
aa(lp310
g7
aa(lp311
g12
aa(lp312
g14
aasa(dp313
g2
(lp314
sg29
(lp315
(lp316
g26
aa(lp317
g7
aasa(dp318
g33
(lp319
sg2
(lp320
sS'add'
p321
(lp322
(lp323
g26
aasa(dp324
g43
(lp325
sg2
(lp326
sa(dp327
S'spoon'
p328
(lp329
(lp330
g284
ag106
aasg2
(lp331
sg272
(lp332
sa(dp333
g43
(lp334
sg2
(lp335
sa(dp336
g2
(lp337
sa(dp338
g2
(lp339
sg76
(lp340
(lp341
g7
aa(lp342
g10
aa(lp343
g223
aa(lp344
g12
aasa(dp345
g33
(lp346
(lp347
g72
aasg2
(lp348
sa(dp349
g230
(lp350
sg2
(lp351
sg29
(lp352
(lp353
g26
aa(lp354
g7
aasa(dp355
g2
(lp356
sg238
(lp357
sa(dp358
g246
(lp359
sg2
(lp360
sg4
(lp361
(lp362
g10
aa(lp363
g244
ag245
aasa(dp364
g2
(lp365
sg250
(lp366
(lp367
g10
aasa(dp368
g2
(lp369
sg246
(lp370
(lp371
g244
aasa(dp372
g2
(lp373
sg259
(lp374
(lp375
g244
aasa(dp376
g2
(lp377
sg23
(lp378
(lp379
g26
aasa(dp380
g2
(lp381
sg108
(lp382
(lp383
g244
aasa(dp384
g2
(lp385
sg272
(lp386
sg274
(lp387
sa(dp388
g277
(lp389
(lp390
g223
aasg2
(lp391
sa(dp392
g100
(lp393
(lp394
g284
aa(lp395
g286
aasg2
(lp396
sa(dp397
g289
(lp398
(lp399
g292
aasg2
(lp400
sa(dp401
g2
(lp402
sa(dp403
g2
(lp404
sg23
(lp405
(lp406
S'yeast'
p407
aa(lp408
S'water'
p409
aasg76
(lp410
sa(dp411
g321
(lp412
(lp413
S'flour'
p414
aa(lp415
S'salt'
p416
aasg2
(lp417
sa(dp418
S'knead'
p419
(lp420
sg2
(lp421
sg274
(lp422
sa(dp423
g321
(lp424
(lp425
g414
aasg2
(lp426
sg419
(lp427
sa(dp428
g93
(lp429
sg2
(lp430
sg274
(lp431
sa(dp432
g2
(lp433
sg23
(lp434
sa(dp435
g2
(lp436
sS'drizzle'
p437
(lp438
(lp439
g72
aasa(dp440
g2
(lp441
sg108
(lp442
(lp443
g72
aasa(dp444
g2
(lp445
sg272
(lp446
sa(dp447
g93
(lp448
sg2
(lp449
sa(dp450
g2
(lp451
sS'cut'
p452
(lp453
sa(dp454
g2
(lp455
sS'roll'
p456
(lp457
sa(dp458
g2
(lp459
sg272
(lp460
sa(dp461
g2
(lp462
sS'flatten'
p463
(lp464
sa(dp465
g2
(lp466
sg456
(lp467
sg274
(lp468
sa(dp469
g93
(lp470
sg2
(lp471
sg272
(lp472
sa(dp473
S'preheat'
p474
(lp475
sg2
(lp476
sa(dp477
g2
(lp478
sg23
(lp479
(lp480
g409
aasa(dp481
g2
(lp482
sS'score'
p483
(lp484
sa(dp485
S'spritz'
p486
(lp487
(lp488
g409
aasg2
(lp489
sa(dp490
g2
(lp491
sS'bake'
p492
(lp493
sa(dp494
g486
(lp495
sg2
(lp496
sa(dp497
g2
(lp498
sg492
(lp499
sa(dp500
g93
(lp501
sg2
(lp502
sS'cool'
p503
(lp504
sa(dp505
g2
(lp506
sa(dp507
g43
(lp508
sg2
(lp509
sg4
(lp510
(lp511
g284
ag106
aa(lp512
g302
aasa(dp513
g2
(lp514
sg246
(lp515
sa(dp516
g2
(lp517
sg76
(lp518
(lp519
g10
aa(lp520
g7
aa(lp521
g12
aa(lp522
g14
aasa(dp523
g2
(lp524
sg29
(lp525
(lp526
g26
aa(lp527
g7
aasa(dp528
g33
(lp529
sg2
(lp530
sg321
(lp531
(lp532
g26
aasa(dp533
g43
(lp534
sg2
(lp535
sa(dp536
g328
(lp537
(lp538
g284
ag106
aasg2
(lp539
sg272
(lp540
sa(dp541
g43
(lp542
sg2
(lp543
sa(dp544
g2
(lp545
sa(dp546
g2
(lp547
sg23
(lp548
(lp549
g407
aa(lp550
g409
aasg76
(lp551
sa(dp552
g321
(lp553
(lp554
g414
aa(lp555
g416
aasg2
(lp556
sa(dp557
g419
(lp558
sg2
(lp559
sg274
(lp560
sa(dp561
g321
(lp562
(lp563
g414
aasg2
(lp564
sg419
(lp565
sa(dp566
g93
(lp567
sg2
(lp568
sg274
(lp569
sa(dp570
g2
(lp571
sg23
(lp572
sa(dp573
g2
(lp574
sg437
(lp575
(lp576
g72
aasa(dp577
g2
(lp578
sg108
(lp579
(lp580
g72
aasa(dp581
g2
(lp582
sg272
(lp583
sa(dp584
g93
(lp585
sg2
(lp586
sa(dp587
g2
(lp588
sg452
(lp589
sg274
(lp590
sa(dp591
g2
(lp592
sg456
(lp593
sa(dp594
g2
(lp595
sg272
(lp596
sa(dp597
g2
(lp598
sg463
(lp599
sa(dp600
g2
(lp601
sg456
(lp602
sg274
(lp603
sa(dp604
g93
(lp605
sg2
(lp606
sg272
(lp607
sa(dp608
g474
(lp609
sg2
(lp610
sa(dp611
g2
(lp612
sg23
(lp613
(lp614
g409
aasa(dp615
g2
(lp616
sg483
(lp617
sa(dp618
g486
(lp619
(lp620
g409
aasg2
(lp621
sa(dp622
g2
(lp623
sg492
(lp624
sa(dp625
g486
(lp626
sg2
(lp627
sS'rotate'
p628
(lp629
sa(dp630
g2
(lp631
sg492
(lp632
sa(dp633
g93
(lp634
sg2
(lp635
sg503
(lp636
sa(dp637
g2
(lp638
sa(dp639
g2
(lp640
sg452
(lp641
(lp642
S'onion'
p643
aa(lp644
S'carrot'
p645
aa(lp646
S'celery'
p647
aasS'pulse'
p648
(lp649
sa(dp650
g43
(lp651
(lp652
S'smoked'
p653
aS'sausage'
p654
aasg33
(lp655
sg2
(lp656
sa(dp657
g43
(lp658
sg321
(lp659
(lp660
g643
aa(lp661
g645
aa(lp662
g647
aasg2
(lp663
sa(dp664
g43
(lp665
sg321
(lp666
(lp667
S'ketchup'
p668
aa(lp669
S'worcestershire'
p670
ag112
aa(lp671
S'brown'
p672
ag223
aasg2
(lp673
sa(dp674
g328
(lp675
(lp676
S'bun'
p677
aa(lp678
g106
aasg2
(lp679
sS'serve'
p680
(lp681
sa(dp682
g2
(lp683
sa(dp684
g474
(lp685
sg2
(lp686
sa(dp687
g2
(lp688
sa(dp689
S'toss'
p690
(lp691
(lp692
S'daikon'
p693
aa(lp694
g645
aa(lp695
S'rice'
p696
aS'vinegar'
p697
aasg2
(lp698
sa(dp699
g2
(lp700
sa(dp701
S'refrigerate'
p702
(lp703
sg2
(lp704
sS'set'
p705
(lp706
sg62
(lp707
sa(dp708
S'mix'
p709
(lp710
(lp711
S'mayonnaise'
p712
aa(lp713
S'hoisin'
p714
ag112
aa(lp715
S'sriracha'
p716
aasg2
(lp717
sa(dp718
g2
(lp719
sS'open'
p720
(lp721
sS'split'
p722
(lp723
(lp724
g456
aasa(dp725
S'pull'
p726
(lp727
sg2
(lp728
sa(dp729
g2
(lp730
sg108
(lp731
(lp732
g456
aasa(dp733
g2
(lp734
sg452
(lp735
sg93
(lp736
(lp737
g456
aasa(dp738
g2
(lp739
sg492
(lp740
sa(dp741
g2
(lp742
sg23
(lp743
(lp744
S'pork'
p745
aa(lp746
S'pate'
p747
aa(lp748
S'cucumber'
p749
aa(lp750
g645
aa(lp751
S'jalapeno'
p752
aa(lp753
S'cilantro'
p754
aS'leaf'
p755
aa(lp756
g456
aasa(dp757
g2
(lp758
sg452
(lp759
sg680
(lp760
sa(dp761
g2
(lp762
sa(dp763
g2
(lp764
sg452
(lp765
(lp766
g643
aa(lp767
g645
aa(lp768
g647
aasg648
(lp769
sa(dp770
g43
(lp771
(lp772
g653
ag654
aa(lp773
g672
aasg33
(lp774
sg2
(lp775
sa(dp776
g43
(lp777
sg321
(lp778
(lp779
g643
aa(lp780
g645
aa(lp781
g647
aasg2
(lp782
sa(dp783
g43
(lp784
sg321
(lp785
(lp786
g668
aa(lp787
g670
ag112
aa(lp788
g672
ag223
aasg2
(lp789
sa(dp790
g328
(lp791
(lp792
g677
aa(lp793
g106
aasg2
(lp794
sg680
(lp795
sa(dp796
g2
(lp797
sa(dp798
g474
(lp799
sg2
(lp800
sa(dp801
S'line'
p802
(lp803
sg2
(lp804
sa(dp805
g690
(lp806
(lp807
g645
aa(lp808
g696
ag697
aasg2
(lp809
sa(dp810
g2
(lp811
sa(dp812
g702
(lp813
sg2
(lp814
sg705
(lp815
sg62
(lp816
sa(dp817
g709
(lp818
(lp819
g712
aa(lp820
g714
ag112
aa(lp821
g716
aasg2
(lp822
sa(dp823
g2
(lp824
sg720
(lp825
sg722
(lp826
(lp827
g456
aasa(dp828
g726
(lp829
sg2
(lp830
sa(dp831
g2
(lp832
sg108
(lp833
(lp834
g456
aasa(dp835
g2
(lp836
sg452
(lp837
sg93
(lp838
(lp839
g456
aasa(dp840
g2
(lp841
sg492
(lp842
sa(dp843
g2
(lp844
sg23
(lp845
(lp846
g745
aa(lp847
g747
aa(lp848
g749
aa(lp849
g645
aa(lp850
g752
aa(lp851
g754
ag755
aa(lp852
g456
aasa(dp853
g2
(lp854
sg452
(lp855
sg680
(lp856
sa(dp857
g2
(lp858
sa(dp859
g474
(lp860
sg2
(lp861
sa(dp862
S'grill'
p863
(lp864
(lp865
S'red'
p866
aa(lp867
S'pepper'
p868
aasg2
(lp869
sa(dp870
g93
(lp871
sg2
(lp872
sa(dp873
g2
(lp874
sg23
(lp875
(lp876
S'tomato'
p877
aa(lp878
S'garlic'
p879
aasa(dp880
g2
(lp881
sS'blend'
p882
(lp883
(lp884
g868
aasa(dp885
S'season'
p886
(lp887
(lp888
S'oregano'
p889
aa(lp890
g416
aa(lp891
g868
aasg2
(lp892
sa(dp893
g863
(lp894
(lp895
S'eggplant'
p896
aa(lp897
S'zucchini'
p898
aa(lp899
g877
aa(lp900
g643
aasg2
(lp901
sa(dp902
g2
(lp903
sg108
(lp904
sg437
(lp905
(lp906
S'olive'
p907
ag72
aa(lp908
g26
aasg50
(lp909
sa(dp910
g321
(lp911
(lp912
S'mozzarella'
p913
ag106
aasg2
(lp914
sg23
(lp915
(lp916
g26
aasa(dp917
g100
(lp918
(lp919
g896
aa(lp920
g913
ag106
aasg2
(lp921
sa(dp922
g2
(lp923
sg23
(lp924
(lp925
g26
aasa(dp926
g863
(lp927
(lp928
g106
aasg2
(lp929
sa(dp930
g2
(lp931
sa(dp932
g474
(lp933
sg2
(lp934
sa(dp935
g863
(lp936
(lp937
g866
aa(lp938
g868
aasg2
(lp939
sa(dp940
g93
(lp941
sg2
(lp942
sa(dp943
g2
(lp944
sg23
(lp945
(lp946
g877
aa(lp947
g879
aasa(dp948
g2
(lp949
sg882
(lp950
(lp951
g868
aasa(dp952
g886
(lp953
(lp954
g889
aa(lp955
g416
aa(lp956
g868
aasg2
(lp957
sa(dp958
g863
(lp959
(lp960
g896
aa(lp961
g898
aa(lp962
g877
aa(lp963
g643
aasg2
(lp964
sS'slice'
p965
(lp966
sa(dp967
g2
(lp968
sg108
(lp969
sg437
(lp970
(lp971
g907
ag72
aa(lp972
g26
aasg50
(lp973
sa(dp974
g321
(lp975
(lp976
g913
ag106
aasg2
(lp977
sg23
(lp978
(lp979
g26
aasa(dp980
g100
(lp981
(lp982
g896
aa(lp983
g913
ag106
aasg2
(lp984
sa(dp985
g2
(lp986
sg23
(lp987
(lp988
g26
aasa(dp989
g863
(lp990
(lp991
g106
aasg2
(lp992
sa(dp993
g2
(lp994
sa(dp995
g43
(lp996
sg2
(lp997
sg23
(lp998
(lp999
g59
aasa(dp1000
g2
(lp1001
sg62
(lp1002
sa(dp1003
g2
(lp1004
sg705
(lp1005
sS'crumble'
p1006
(lp1007
sa(dp1008
g33
(lp1009
sg2
(lp1010
sg38
(lp1011
(lp1012
g41
aasa(dp1013
g2
(lp1014
sS'crack'
p1015
(lp1016
(lp1017
g7
aa(lp1018
g416
aa(lp1019
g868
aasa(dp1020
g43
(lp1021
(lp1022
g7
aasg2
(lp1023
sa(dp1024
g2
(lp1025
sg50
(lp1026
(lp1027
g7
aasa(dp1028
S'sprinkle'
p1029
(lp1030
(lp1031
g59
aa(lp1032
S'cheddar'
p1033
ag106
aa(lp1034
g7
aasg2
(lp1035
sa(dp1036
g43
(lp1037
(lp1038
g106
aasg2
(lp1039
sa(dp1040
g2
(lp1041
sg23
(lp1042
(lp1043
g7
aasa(dp1044
g93
(lp1045
sg2
(lp1046
sa(dp1047
g2
(lp1048
sa(dp1049
g43
(lp1050
sg2
(lp1051
sg23
(lp1052
(lp1053
g59
aasa(dp1054
g2
(lp1055
sg62
(lp1056
sa(dp1057
g2
(lp1058
sg705
(lp1059
sg1006
(lp1060
sa(dp1061
g33
(lp1062
sg2
(lp1063
sg38
(lp1064
(lp1065
g41
aa(lp1066
g38
aasa(dp1067
g2
(lp1068
sg1015
(lp1069
(lp1070
g7
aa(lp1071
g416
aa(lp1072
g868
aasa(dp1073
g43
(lp1074
(lp1075
g7
aasg2
(lp1076
sa(dp1077
g2
(lp1078
sg50
(lp1079
(lp1080
g7
aasa(dp1081
g1029
(lp1082
(lp1083
g59
aa(lp1084
g1033
ag106
aa(lp1085
g7
aasg2
(lp1086
sa(dp1087
g43
(lp1088
(lp1089
g106
aasg2
(lp1090
sa(dp1091
g2
(lp1092
sg23
(lp1093
(lp1094
g7
aasa(dp1095
g93
(lp1096
sg2
(lp1097
sa(dp1098
g2
(lp1099
sa(dp1100
g2
(lp1101
sS'roast'
p1102
(lp1103
(lp1104
g745
aasa(dp1105
g2
(lp1106
sg965
(lp1107
g745
asa(dp1108
g33
(lp1109
(lp1110
S'sandwich'
p1111
aasg2
(lp1112
sa(dp1113
g2
(lp1114
sg246
(lp1115
(lp1116
g712
aa(lp1117
S'caper'
p1118
aa(lp1119
S'lemon'
p1120
ag868
aasa(dp1121
g2
(lp1122
sS'brush'
p1123
(lp1124
(lp1125
g26
aa(lp1126
g907
ag72
aasa(dp1127
g2
(lp1128
sg108
(lp1129
(lp1130
g26
aa(lp1131
g712
aasa(dp1132
S'layer'
p1133
(lp1134
(lp1135
S'arugula'
p1136
aa(lp1137
g745
aa(lp1138
S'havarti'
p1139
aasg2
(lp1140
(lp1141
g1111
aasg100
(lp1142
(lp1143
g712
aasa(dp1144
g100
(lp1145
(lp1146
g26
aasg2
(lp1147
sa(dp1148
g2
(lp1149
(lp1150
g907
ag72
aasa(dp1151
g2
(lp1152
sg23
(lp1153
(lp1154
g1111
aasa(dp1155
g43
(lp1156
(lp1157
g26
aa(lp1158
g106
aasg2
(lp1159
sa(dp1160
g2
(lp1161
sg452
(lp1162
sg680
(lp1163
sa(dp1164
g2
(lp1165
sa(dp1166
g2
(lp1167
sg1102
(lp1168
(lp1169
g745
aasa(dp1170
g2
(lp1171
sg965
(lp1172
sa(dp1173
g33
(lp1174
sg2
(lp1175
sa(dp1176
g2
(lp1177
sg246
(lp1178
(lp1179
g712
aa(lp1180
g1118
aa(lp1181
g1120
ag868
aasa(dp1182
g2
(lp1183
sg1123
(lp1184
(lp1185
g26
aa(lp1186
g907
ag72
aasa.