(lp0
(dp1
S'#no-action#'
p2
(lp3
sS'combine'
p4
(lp5
(lp6
S'egg'
p7
aa(lp8
S'soy'
p9
aS'milk'
p10
aa(lp11
S'vanilla'
p12
aa(lp13
S'cinnamon'
p14
aasa(dp15
g2
(lp16
sS'overlap'
p17
(lp18
(lp19
S'banana'
p20
aasa(dp21
g2
(lp22
sS'place'
p23
(lp24
(lp25
S'bread'
p26
aasa(dp27
g2
(lp28
sS'dip'
p29
(lp30
(lp31
g7
aasa(dp32
S'heat'
p33
(lp34
(lp35
S'skillet'
p36
aasg2
(lp37
sS'spray'
p38
(lp39
(lp40
S'cooking'
p41
ag38
aasa(dp42
S'cook'
p43
(lp44
sg2
(lp45
sg23
(lp46
sa(dp47
g43
(lp48
sg2
(lp49
sS'flip'
p50
(lp51
sa(dp52
g2
(lp53
sa(dp54
g43
(lp55
sg2
(lp56
sg23
(lp57
(lp58
S'bacon'
p59
aasa(dp60
g2
(lp61
sS'drain'
p62
(lp63
(lp64
g59
aasa(dp65
S'break'
p66
(lp67
sg2
(lp68
sa(dp69
g33
(lp70
(lp71
S'oil'
p72
aasg2
(lp73
sa(dp74
g2
(lp75
sS'whisk'
p76
(lp77
(lp78
g10
aa(lp79
g7
aa(lp80
S'nutmeg'
p81
aasa(dp82
g2
(lp83
sg29
(lp84
(lp85
g26
aa(lp86
g7
aasa(dp87
g43
(lp88
(lp89
g26
aa(lp90
g7
aasg2
(lp91
sa(dp92
S'transfer'
p93
(lp94
sg2
(lp95
sS'turn'
p96
(lp97
sa(dp98
g2
(lp99
sS'top'
p100
(lp101
(lp102
S'turkey'
p103
aa(lp104
S'provolone'
p105
aS'cheese'
p106
aa(lp107
g59
aasS'spread'
p108
(lp109
(lp110
S'cranberry'
p111
aS'sauce'
p112
aasa(dp113
g2
(lp114
sg108
(lp115
(lp116
S'mustard'
p117
aasS'lay'
p118
(lp119
(lp120
g59
aasa(dp121
g43
(lp122
(lp123
g106
aasg2
(lp124
sa(dp125
g2
(lp126
sa(dp127
g2
(lp128
sg4
(lp129
(lp130
g7
aa(lp131
g9
ag10
aa(lp132
g12
aa(lp133
g14
aasa(dp134
g2
(lp135
sg17
(lp136
(lp137
g20
aasa(dp138
g2
(lp139
sg29
(lp140
(lp141
g7
aasa(dp142
g33
(lp143
(lp144
g36
aasg2
(lp145
sg38
(lp146
(lp147
g41
ag38
aasa(dp148
g43
(lp149
sg2
(lp150
sg23
(lp151
sa(dp152
g43
(lp153
sg2
(lp154
sg50
(lp155
sa(dp156
g2
(lp157
sa(dp158
g43
(lp159
sg2
(lp160
sg23
(lp161
(lp162
g59
aasa(dp163
g2
(lp164
sg62
(lp165
(lp166
g59
aasa(dp167
g66
(lp168
sg2
(lp169
sa(dp170
g33
(lp171
(lp172
g72
aasg2
(lp173
sa(dp174
g2
(lp175
sg76
(lp176
(lp177
g10
aa(lp178
g7
aa(lp179
g81
aasa(dp180
g2
(lp181
sg29
(lp182
(lp183
g26
aa(lp184
g7
aasa(dp185
g43
(lp186
(lp187
g26
aasg2
(lp188
sa(dp189
g93
(lp190
sg2
(lp191
sg96
(lp192
sa(dp193
g2
(lp194
sg100
(lp195
(lp196
g103
aa(lp197
g105
ag106
aa(lp198
g59
aasg108
(lp199
(lp200
g111
ag112
aasa(dp201
g2
(lp202
sg108
(lp203
(lp204
g117
aasg118
(lp205
(lp206
g59
aasa(dp207
g43
(lp208
(lp209
g106
aasg2
(lp210
sa(dp211
g2
(lp212
sa(dp213
g2
(lp214
sg76
(lp215
(lp216
g7
aa(lp217
g10
aa(lp218
S'sugar'
p219
aa(lp220
g12
aasa(dp221
g33
(lp222
(lp223
g72
aasg2
(lp224
sa(dp225
S'fry'
p226
(lp227
sg2
(lp228
sg29
(lp229
(lp230
g26
aa(lp231
g7
aasa(dp232
g2
(lp233
sS'repeat'
p234
(lp235
sa(dp236
g2
(lp237
(lp238
g10
aa(lp239
S'custard'
p240
aS'powder'
p241
aasS'stir'
p242
(lp243
sa(dp244
g2
(lp245
sS'boil'
p246
(lp247
(lp248
g10
aasa(dp249
g2
(lp250
sg242
(lp251
(lp252
g240
aasa(dp253
g2
(lp254
sS'reduce'
p255
(lp256
(lp257
g240
aasa(dp258
g2
(lp259
sg23
(lp260
(lp261
g26
aasa(dp262
g2
(lp263
sS'cover'
p264
(lp265
sS'form'
p266
(lp267
sa(dp268
S'dust'
p269
(lp270
(lp271
g219
aasg2
(lp272
sa(dp273
g100
(lp274
(lp275
S'cream'
p276
aa(lp277
S'strawberry'
p278
aasg2
(lp279
sa(dp280
S'insert'
p281
(lp282
(lp283
S'toothpick'
p284
aasg2
(lp285
sa(dp286
g2
(lp287
sa(dp288
g43
(lp289
sg2
(lp290
sg4
(lp291
(lp292
g276
ag106
aa(lp293
S'jam'
p294
aasa(dp295
g2
(lp296
sg242
(lp297
sa(dp298
g2
(lp299
sg76
(lp300
(lp301
g10
aa(lp302
g7
aa(lp303
g12
aa(lp304
g14
aasa(dp305
g2
(lp306
sg29
(lp307
(lp308
g26
aa(lp309
g7
aasa(dp310
g33
(lp311
sg2
(lp312
sS'add'
p313
(lp314
(lp315
g26
aasa(dp316
g43
(lp317
sg2
(lp318
sa(dp319
S'spoon'
p320
(lp321
(lp322
g276
ag106
aasg2
(lp323
sg264
(lp324
sa(dp325
g43
(lp326
sg2
(lp327
sa(dp328
g2
(lp329
sa(dp330
g2
(lp331
sg76
(lp332
(lp333
g7
aa(lp334
g10
aa(lp335
g219
aa(lp336
g12
aasa(dp337
g33
(lp338
(lp339
g72
aasg2
(lp340
sa(dp341
g226
(lp342
sg2
(lp343
sg29
(lp344
(lp345
g26
aa(lp346
g7
aasa(dp347
g2
(lp348
sg234
(lp349
sa(dp350
g242
(lp351
sg2
(lp352
sg4
(lp353
(lp354
g10
aa(lp355
g240
ag241
aasa(dp356
g2
(lp357
sg246
(lp358
(lp359
g10
aasa(dp360
g2
(lp361
sg242
(lp362
(lp363
g240
aasa(dp364
g2
(lp365
sg255
(lp366
(lp367
g240
aasa(dp368
g2
(lp369
sg23
(lp370
(lp371
g26
aasa(dp372
g2
(lp373
sg108
(lp374
(lp375
g240
aasa(dp376
g2
(lp377
sg264
(lp378
sg266
(lp379
sa(dp380
g269
(lp381
(lp382
g219
aasg2
(lp383
sa(dp384
g100
(lp385
(lp386
g276
aa(lp387
g278
aasg2
(lp388
sa(dp389
g281
(lp390
(lp391
g284
aasg2
(lp392
sa(dp393
g2
(lp394
sa(dp395
g2
(lp396
sg23
(lp397
(lp398
S'yeast'
p399
aa(lp400
S'water'
p401
aasg76
(lp402
sa(dp403
g313
(lp404
(lp405
S'flour'
p406
aa(lp407
S'salt'
p408
aasg2
(lp409
sa(dp410
S'knead'
p411
(lp412
sg2
(lp413
sg266
(lp414
sa(dp415
g313
(lp416
(lp417
g406
aasg2
(lp418
sg411
(lp419
sa(dp420
g93
(lp421
sg2
(lp422
sg266
(lp423
sa(dp424
g2
(lp425
sg23
(lp426
sa(dp427
g2
(lp428
sS'drizzle'
p429
(lp430
(lp431
g72
aasa(dp432
g2
(lp433
sg108
(lp434
(lp435
g72
aasa(dp436
g2
(lp437
sg264
(lp438
sa(dp439
g93
(lp440
sg2
(lp441
sa(dp442
g2
(lp443
sS'cut'
p444
(lp445
sa(dp446
g2
(lp447
sS'roll'
p448
(lp449
sa(dp450
g2
(lp451
sg264
(lp452
sa(dp453
g2
(lp454
sS'flatten'
p455
(lp456
sa(dp457
g93
(lp458
sg2
(lp459
sg264
(lp460
sa(dp461
S'preheat'
p462
(lp463
sg2
(lp464
sa(dp465
g2
(lp466
sg23
(lp467
(lp468
g401
aasa(dp469
g2
(lp470
sS'score'
p471
(lp472
sa(dp473
S'spritz'
p474
(lp475
(lp476
g401
aasg2
(lp477
sa(dp478
g2
(lp479
sS'bake'
p480
(lp481
sa(dp482
g474
(lp483
sg2
(lp484
sa(dp485
g2
(lp486
sg480
(lp487
sa(dp488
g93
(lp489
sg2
(lp490
sS'cool'
p491
(lp492
sa(dp493
g2
(lp494
sa(dp495
g43
(lp496
sg2
(lp497
sg4
(lp498
(lp499
g276
ag106
aa(lp500
g294
aasa(dp501
g2
(lp502
sg242
(lp503
sa(dp504
g2
(lp505
sg76
(lp506
(lp507
g10
aa(lp508
g7
aa(lp509
g12
aa(lp510
g14
aasa(dp511
g2
(lp512
sg29
(lp513
(lp514
g26
aa(lp515
g7
aasa(dp516
g33
(lp517
sg2
(lp518
sg313
(lp519
(lp520
g26
aasa(dp521
g43
(lp522
sg2
(lp523
sa(dp524
g320
(lp525
(lp526
g276
ag106
aasg2
(lp527
sg264
(lp528
sa(dp529
g43
(lp530
sg2
(lp531
sa(dp532
g2
(lp533
sa(dp534
g2
(lp535
sg23
(lp536
(lp537
g399
aa(lp538
g401
aasg76
(lp539
sa(dp540
g313
(lp541
(lp542
g406
aa(lp543
g408
aasg2
(lp544
sa(dp545
g411
(lp546
sg2
(lp547
sg266
(lp548
sa(dp549
g313
(lp550
(lp551
g406
aasg2
(lp552
sg411
(lp553
sa(dp554
g93
(lp555
sg2
(lp556
sg266
(lp557
sa(dp558
g2
(lp559
sg23
(lp560
sa(dp561
g2
(lp562
sg429
(lp563
(lp564
g72
aasa(dp565
g2
(lp566
sg108
(lp567
(lp568
g72
aasa(dp569
g2
(lp570
sg264
(lp571
sa(dp572
g93
(lp573
sg2
(lp574
sa(dp575
g2
(lp576
sg444
(lp577
sg266
(lp578
sa(dp579
g2
(lp580
sg448
(lp581
sa(dp582
g2
(lp583
sg264
(lp584
sa(dp585
g2
(lp586
sg455
(lp587
sa(dp588
g2
(lp589
sg448
(lp590
sg266
(lp591
sa(dp592
g93
(lp593
sg2
(lp594
sg264
(lp595
sa(dp596
g462
(lp597
sg2
(lp598
sa(dp599
g2
(lp600
sg23
(lp601
(lp602
g401
aasa(dp603
g2
(lp604
sg471
(lp605
sa(dp606
g474
(lp607
(lp608
g401
aasg2
(lp609
sa(dp610
g2
(lp611
sg480
(lp612
sa(dp613
g474
(lp614
sg2
(lp615
sS'rotate'
p616
(lp617
sa(dp618
g2
(lp619
sg480
(lp620
sa(dp621
g93
(lp622
sg2
(lp623
sg491
(lp624
sa(dp625
g2
(lp626
sa(dp627
g2
(lp628
sg444
(lp629
(lp630
S'onion'
p631
aa(lp632
S'carrot'
p633
aa(lp634
S'celery'
p635
aasS'pulse'
p636
(lp637
sa(dp638
g43
(lp639
(lp640
S'smoked'
p641
aS'sausage'
p642
aasg33
(lp643
sg2
(lp644
sa(dp645
g43
(lp646
sg313
(lp647
(lp648
g631
aa(lp649
g633
aa(lp650
g635
aasg2
(lp651
sa(dp652
g43
(lp653
sg313
(lp654
(lp655
S'ketchup'
p656
aa(lp657
S'worcestershire'
p658
ag112
aa(lp659
S'brown'
p660
ag219
aasg2
(lp661
sa(dp662
g320
(lp663
(lp664
S'bun'
p665
aa(lp666
g106
aasg2
(lp667
sS'serve'
p668
(lp669
sa(dp670
g2
(lp671
sa(dp672
g462
(lp673
sg2
(lp674
sa(dp675
g2
(lp676
sa(dp677
S'toss'
p678
(lp679
(lp680
S'daikon'
p681
aa(lp682
g633
aa(lp683
S'rice'
p684
aS'vinegar'
p685
aasg2
(lp686
sa(dp687
g2
(lp688
sa(dp689
S'refrigerate'
p690
(lp691
sg2
(lp692
sS'set'
p693
(lp694
sg62
(lp695
sa(dp696
S'mix'
p697
(lp698
(lp699
S'mayonnaise'
p700
aa(lp701
S'hoisin'
p702
ag112
aa(lp703
S'sriracha'
p704
aasg2
(lp705
sa(dp706
g2
(lp707
sS'open'
p708
(lp709
sS'split'
p710
(lp711
(lp712
g448
aasa(dp713
S'pull'
p714
(lp715
sg2
(lp716
sa(dp717
g2
(lp718
sg108
(lp719
(lp720
g448
aasa(dp721
g2
(lp722
sg444
(lp723
sg93
(lp724
(lp725
g448
aasa(dp726
g2
(lp727
sg480
(lp728
sa(dp729
g2
(lp730
sg23
(lp731
(lp732
S'pork'
p733
aa(lp734
S'pate'
p735
aa(lp736
S'cucumber'
p737
aa(lp738
g633
aa(lp739
S'jalapeno'
p740
aa(lp741
S'cilantro'
p742
aS'leaf'
p743
aa(lp744
g448
aasa(dp745
g2
(lp746
sg444
(lp747
sg668
(lp748
sa(dp749
g2
(lp750
sa(dp751
g2
(lp752
sg444
(lp753
(lp754
g631
aa(lp755
g633
aa(lp756
g635
aasg636
(lp757
sa(dp758
g43
(lp759
(lp760
g641
ag642
aa(lp761
g660
aasg33
(lp762
sg2
(lp763
sa(dp764
g43
(lp765
sg313
(lp766
(lp767
g631
aa(lp768
g633
aa(lp769
g635
aasg2
(lp770
sa(dp771
g43
(lp772
sg313
(lp773
(lp774
g656
aa(lp775
g658
ag112
aa(lp776
g660
ag219
aasg2
(lp777
sa(dp778
g320
(lp779
(lp780
g665
aa(lp781
g106
aasg2
(lp782
sg668
(lp783
sa(dp784
g2
(lp785
sa(dp786
g462
(lp787
sg2
(lp788
sa(dp789
S'line'
p790
(lp791
sg2
(lp792
sa(dp793
g678
(lp794
(lp795
g633
aa(lp796
g684
ag685
aasg2
(lp797
sa(dp798
g2
(lp799
sa(dp800
g690
(lp801
sg2
(lp802
sg693
(lp803
sg62
(lp804
sa(dp805
g697
(lp806
(lp807
g700
aa(lp808
g702
ag112
aa(lp809
g704
aasg2
(lp810
sa(dp811
g2
(lp812
sg708
(lp813
sg710
(lp814
(lp815
g448
aasa(dp816
g714
(lp817
sg2
(lp818
sa(dp819
g2
(lp820
sg108
(lp821
(lp822
g448
aasa(dp823
g2
(lp824
sg444
(lp825
sg93
(lp826
(lp827
g448
aasa(dp828
g2
(lp829
sg480
(lp830
sa(dp831
g2
(lp832
sg23
(lp833
(lp834
g733
aa(lp835
g735
aa(lp836
g737
aa(lp837
g633
aa(lp838
g740
aa(lp839
g742
ag743
aa(lp840
g448
aasa(dp841
g2
(lp842
sg444
(lp843
sg668
(lp844
sa(dp845
g2
(lp846
sa(dp847
g462
(lp848
sg2
(lp849
sa(dp850
S'grill'
p851
(lp852
(lp853
S'red'
p854
aa(lp855
S'pepper'
p856
aasg2
(lp857
sa(dp858
g93
(lp859
sg2
(lp860
sa(dp861
g2
(lp862
sg23
(lp863
(lp864
S'tomato'
p865
aa(lp866
S'garlic'
p867
aasa(dp868
g2
(lp869
sS'blend'
p870
(lp871
(lp872
g856
aasa(dp873
S'season'
p874
(lp875
(lp876
S'oregano'
p877
aa(lp878
g408
aa(lp879
g856
aasg2
(lp880
sa(dp881
g2
(lp882
sg108
(lp883
sg429
(lp884
(lp885
S'olive'
p886
ag72
aa(lp887
g26
aasg50
(lp888
sa(dp889
g313
(lp890
(lp891
S'mozzarella'
p892
ag106
aasg2
(lp893
sg23
(lp894
(lp895
g26
aasa(dp896
g100
(lp897
(lp898
S'eggplant'
p899
aa(lp900
g892
ag106
aasg2
(lp901
sa(dp902
g2
(lp903
sg23
(lp904
(lp905
g26
aasa(dp906
g851
(lp907
(lp908
g106
aasg2
(lp909
sa(dp910
g2
(lp911
sa(dp912
g462
(lp913
sg2
(lp914
sa(dp915
g851
(lp916
(lp917
g854
aa(lp918
g856
aasg2
(lp919
sa(dp920
g93
(lp921
sg2
(lp922
sa(dp923
g2
(lp924
sg23
(lp925
(lp926
g865
aa(lp927
g867
aasa(dp928
g2
(lp929
sg870
(lp930
(lp931
g856
aasa(dp932
g874
(lp933
(lp934
g877
aa(lp935
g408
aa(lp936
g856
aasg2
(lp937
sa(dp938
g851
(lp939
(lp940
g899
aa(lp941
S'zucchini'
p942
aa(lp943
g865
aa(lp944
g631
aasg2
(lp945
sS'slice'
p946
(lp947
sa(dp948
g2
(lp949
sg108
(lp950
sg429
(lp951
(lp952
g886
ag72
aa(lp953
g26
aasg50
(lp954
sa(dp955
g313
(lp956
(lp957
g892
ag106
aasg2
(lp958
sg23
(lp959
(lp960
g26
aasa(dp961
g100
(lp962
(lp963
g899
aa(lp964
g892
ag106
aasg2
(lp965
sa(dp966
g2
(lp967
sg23
(lp968
(lp969
g26
aasa(dp970
g851
(lp971
(lp972
g106
aasg2
(lp973
sa(dp974
g2
(lp975
sa(dp976
g43
(lp977
sg2
(lp978
sg23
(lp979
(lp980
g59
aasa(dp981
g2
(lp982
sg62
(lp983
sa(dp984
g2
(lp985
sg693
(lp986
sS'crumble'
p987
(lp988
sa(dp989
g33
(lp990
sg2
(lp991
sg38
(lp992
(lp993
g41
aasa(dp994
g2
(lp995
sS'crack'
p996
(lp997
(lp998
g7
aa(lp999
g408
aa(lp1000
g856
aasa(dp1001
g43
(lp1002
(lp1003
g7
aasg2
(lp1004
sa(dp1005
g2
(lp1006
sg50
(lp1007
(lp1008
g7
aasa(dp1009
S'sprinkle'
p1010
(lp1011
(lp1012
g59
aa(lp1013
S'cheddar'
p1014
ag106
aa(lp1015
g7
aasg2
(lp1016
sa(dp1017
g43
(lp1018
(lp1019
g106
aasg2
(lp1020
sa(dp1021
g2
(lp1022
sg23
(lp1023
(lp1024
g7
aasa(dp1025
g93
(lp1026
sg2
(lp1027
sa(dp1028
g2
(lp1029
sa(dp1030
g43
(lp1031
sg2
(lp1032
sg23
(lp1033
(lp1034
g59
aasa(dp1035
g2
(lp1036
sg62
(lp1037
sa(dp1038
g2
(lp1039
sg693
(lp1040
sg987
(lp1041
sa(dp1042
g33
(lp1043
sg2
(lp1044
sg38
(lp1045
(lp1046
g41
aa(lp1047
g38
aasa(dp1048
g2
(lp1049
sg996
(lp1050
(lp1051
g7
aa(lp1052
g408
aa(lp1053
g856
aasa(dp1054
g43
(lp1055
(lp1056
g7
aasg2
(lp1057
sa(dp1058
g2
(lp1059
sg50
(lp1060
(lp1061
g7
aasa(dp1062
g1010
(lp1063
(lp1064
g59
aa(lp1065
g1014
ag106
aa(lp1066
g7
aasg2
(lp1067
sa(dp1068
g2
(lp1069
sg23
(lp1070
(lp1071
g7
aasa(dp1072
g93
(lp1073
sg2
(lp1074
sa(dp1075
g2
(lp1076
sa(dp1077
g2
(lp1078
sS'roast'
p1079
(lp1080
(lp1081
g733
aasa(dp1082
g2
(lp1083
sg946
(lp1084
g733
asa(dp1085
g33
(lp1086
(lp1087
S'sandwich'
p1088
aasg2
(lp1089
sa(dp1090
g2
(lp1091
sg242
(lp1092
(lp1093
g700
aa(lp1094
S'caper'
p1095
aa(lp1096
S'lemon'
p1097
ag856
aasa(dp1098
g2
(lp1099
sS'brush'
p1100
(lp1101
(lp1102
g26
aa(lp1103
g886
ag72
aasa(dp1104
g2
(lp1105
sg108
(lp1106
(lp1107
g26
aa(lp1108
g700
aasa(dp1109
S'layer'
p1110
(lp1111
(lp1112
S'arugula'
p1113
aa(lp1114
g733
aa(lp1115
S'havarti'
p1116
aasg2
(lp1117
(lp1118
g1088
aasg100
(lp1119
(lp1120
g700
aasa(dp1121
g100
(lp1122
(lp1123
g26
aasg2
(lp1124
sa(dp1125
g2
(lp1126
(lp1127
g886
ag72
aasa(dp1128
g2
(lp1129
sg23
(lp1130
(lp1131
g1088
aasa(dp1132
g43
(lp1133
(lp1134
g26
aa(lp1135
g106
aasg2
(lp1136
sa(dp1137
g2
(lp1138
sg444
(lp1139
sg668
(lp1140
sa(dp1141
g2
(lp1142
sa(dp1143
g2
(lp1144
sg1079
(lp1145
(lp1146
g733
aasa(dp1147
g2
(lp1148
sg946
(lp1149
sa(dp1150
g33
(lp1151
sg2
(lp1152
sa(dp1153
g2
(lp1154
sg242
(lp1155
(lp1156
g700
aa(lp1157
g1095
aa(lp1158
g1097
ag856
aasa(dp1159
g2
(lp1160
sg1100
(lp1161
(lp1162
g26
aa(lp1163
g886
ag72
aasa.