(lp0
(dp1
S'preheat'
p2
(lp3
sS'#no-action#'
p4
(lp5
sa(dp6
S'beat'
p7
(lp8
(lp9
S'egg'
p10
aa(lp11
S'vanilla'
p12
aasg4
(lp13
sa(dp14
S'add'
p15
(lp16
(lp17
S'flour'
p18
aasg4
(lp19
sa(dp20
S'fold'
p21
(lp22
(lp23
S'chocolate'
p24
aS'chips'
p25
aasg4
(lp26
sa(dp27
g4
(lp28
sS'drop'
p29
(lp30
sS'bake'
p31
(lp32
sa(dp33
S'transfer'
p34
(lp35
sg4
(lp36
sS'cool'
p37
(lp38
sa(dp39
g4
(lp40
sa(dp41
g2
(lp42
sg4
(lp43
sa(dp44
g4
(lp45
sS'cream'
p46
(lp47
(lp48
S'butter'
p49
aa(lp50
S'sugar'
p51
aasa(dp52
S'mix'
p53
(lp54
sg15
(lp55
(lp56
g10
aa(lp57
g12
aasg4
(lp58
sa(dp59
g4
(lp60
sS'combine'
p61
(lp62
(lp63
S'white'
p64
ag18
aa(lp65
S'wheat'
p66
ag18
aa(lp67
S'baking'
p68
aS'soda'
p69
aa(lp70
S'salt'
p71
aa(lp72
g49
aa(lp73
g10
aasa(dp74
g53
(lp75
sg4
(lp76
sS'stir'
p77
(lp78
sS'pour'
p79
(lp80
(lp81
g24
aasa(dp82
S'press'
p83
(lp84
sg4
(lp85
sa(dp86
g4
(lp87
sg31
(lp88
(lp89
S'brown'
p90
aasa(dp91
g4
(lp92
sa(dp93
g4
(lp94
sa(dp95
g4
(lp96
(lp97
g24
aasa(dp98
g4
(lp99
sa(dp100
S'put'
p101
(lp102
sg2
(lp103
sg4
(lp104
sa(dp105
g4
(lp106
sa(dp107
g4
(lp108
sS'whisk'
p109
(lp110
(lp111
g18
aa(lp112
g68
ag69
aa(lp113
g71
aa(lp114
S'xanthan'
p115
aS'gum'
p116
aasa(dp117
g7
(lp118
(lp119
S'shortening'
p120
aa(lp121
g51
aasg4
(lp122
sa(dp123
g15
(lp124
(lp125
g10
aasg4
(lp126
sa(dp127
g7
(lp128
(lp129
g12
aasg4
(lp130
sa(dp131
S'reduce'
p132
(lp133
(lp134
g18
aasg4
(lp135
sg77
(lp136
(lp137
S'walnut'
p138
aa(lp139
g24
ag25
aasa(dp140
g4
(lp141
sg29
(lp142
sa(dp143
g4
(lp144
sg31
(lp145
sa(dp146
g34
(lp147
sg4
(lp148
sg37
(lp149
sa(dp150
g4
(lp151
sS'keep'
p152
(lp153
sa(dp154
g4
(lp155
sa(dp156
g2
(lp157
sg4
(lp158
sS'place'
p159
(lp160
sa(dp161
S'line'
p162
(lp163
sg4
(lp164
sa(dp165
g4
(lp166
sg109
(lp167
(lp168
g18
aa(lp169
g68
aS'powder'
p170
aa(lp171
g71
aa(lp172
g68
ag69
aasa(dp173
g7
(lp174
(lp175
g10
aa(lp176
g12
aasg4
(lp177
sa(dp178
g7
(lp179
(lp180
g49
aa(lp181
g51
aa(lp182
g90
ag51
aasg4
(lp183
sa(dp184
g7
(lp185
sg15
(lp186
(lp187
g10
aasg4
(lp188
sa(dp189
g15
(lp190
sg4
(lp191
sg132
(lp192
sa(dp193
g21
(lp194
(lp195
g24
aasg4
(lp196
sa(dp197
S'spoon'
p198
(lp199
sg4
(lp200
sa(dp201
g4
(lp202
sg31
(lp203
sa(dp204
g4
(lp205
sg31
(lp206
sg37
(lp207
sa(dp208
g34
(lp209
sg4
(lp210
sg37
(lp211
sa(dp212
g4
(lp213
sa(dp214
S'wrap'
p215
(lp216
sg4
(lp217
sS'freeze'
p218
(lp219
sa(dp220
g4
(lp221
sa(dp222
g4
(lp223
sS'store'
p224
(lp225
sg218
(lp226
sa(dp227
g4
(lp228
sa(dp229
S'position'
p230
(lp231
sg2
(lp232
sg4
(lp233
sa(dp234
g162
(lp235
sa(dp236
S'sift'
p237
(lp238
(lp239
g68
aa(lp240
S'nonstick'
p241
ag68
aasg4
(lp242
sa(dp243
g4
(lp244
sS'split'
p245
(lp246
(lp247
g12
aasS'scrape'
p248
(lp249
sa(dp250
g4
(lp251
sg61
(lp252
(lp253
g12
aa(lp254
S'cherry'
p255
aasa(dp256
g4
(lp257
sS'drain'
p258
(lp259
(lp260
g255
aa(lp261
g12
aS'bean'
p262
aasa(dp263
g7
(lp264
sg4
(lp265
sg61
(lp266
(lp267
g49
aa(lp268
g51
aa(lp269
g90
ag51
aasa(dp270
g7
(lp271
sg15
(lp272
(lp273
g10
aa(lp274
g12
ag262
aasg4
(lp275
sa(dp276
g15
(lp277
(lp278
g18
aasg4
(lp279
sa(dp280
g15
(lp281
(lp282
g255
aa(lp283
g64
ag24
aa(lp284
S'semisweet'
p285
ag24
aasg4
(lp286
sg77
(lp287
sa(dp288
g4
(lp289
sg29
(lp290
(lp291
g68
aS'sheet'
p292
aasa(dp293
g4
(lp294
sg31
(lp295
sa(dp296
g4
(lp297
sg37
(lp298
sa(dp299
g4
(lp300
sS'continue'
p301
(lp302
sa(dp303
g4
(lp304
sa(dp305
g4
(lp306
sa(dp307
g237
(lp308
sg4
(lp309
sa(dp310
g7
(lp311
(lp312
g49
aa(lp313
S'hazelnut'
p314
ag49
aa(lp315
g51
aasg4
(lp316
sa(dp317
g7
(lp318
(lp319
g10
aa(lp320
g12
aasg4
(lp321
sa(dp322
g7
(lp323
(lp324
g18
aasg4
(lp325
sa(dp326
g4
(lp327
sg77
(lp328
(lp329
g24
ag25
aasa(dp330
S'refrigerate'
p331
(lp332
sg4
(lp333
sS'cover'
p334
(lp335
sa(dp336
g4
(lp337
sa(dp338
g4
(lp339
sg152
(lp340
sa(dp341
g4
(lp342
sS'soften'
p343
(lp344
sa(dp345
g2
(lp346
sg4
(lp347
sa(dp348
g4
(lp349
sa(dp350
g4
(lp351
sS'roll'
p352
(lp353
sa(dp354
g4
(lp355
sS'arrange'
p356
(lp357
sa(dp358
g4
(lp359
sg31
(lp360
sa(dp361
g4
(lp362
sg37
(lp363
sa(dp364
g34
(lp365
sg4
(lp366
sg37
(lp367
sa(dp368
g4
(lp369
sa(dp370
g4
(lp371
sg224
(lp372
sa(dp373
g4
(lp374
sa(dp375
g4
(lp376
sS'grease'
p377
(lp378
(lp379
g49
aasa(dp380
g4
(lp381
sS'cut'
p382
(lp383
sa(dp384
g7
(lp385
(lp386
g49
aa(lp387
g10
aa(lp388
g12
aa(lp389
g51
aasg4
(lp390
sa(dp391
g4
(lp392
sg77
(lp393
(lp394
g18
aa(lp395
g68
ag69
aa(lp396
g71
aasa(dp397
g4
(lp398
sg77
(lp399
(lp400
g49
aasa(dp401
g4
(lp402
sg77
(lp403
(lp404
g138
aa(lp405
g24
aasa(dp406
g198
(lp407
sg4
(lp408
sa(dp409
S'cook'
p410
(lp411
sg4
(lp412
sg334
(lp413
sa(dp414
g4
(lp415
sS'set'
p416
(lp417
sa(dp418
S'turn'
p419
(lp420
sg4
(lp421
sS'remove'
p422
(lp423
sa(dp424
g4
(lp425
sg37
(lp426
sa(dp427
S'invert'
p428
(lp429
sg4
(lp430
sa(dp431
g4
(lp432
sg382
(lp433
sa(dp434
g4
(lp435
sS'serve'
p436
(lp437
sa(dp438
g4
(lp439
sa(dp440
g4
(lp441
sa(dp442
g4
(lp443
sa(dp444
g83
(lp445
sg4
(lp446
sa(dp447
g4
(lp448
sa(dp449
g2
(lp450
sg4
(lp451
sa(dp452
g4
(lp453
sS'mash'
p454
(lp455
(lp456
S'banana'
p457
aasa(dp458
g4
(lp459
sa(dp460
g4
(lp461
sg159
(lp462
sa(dp463
g4
(lp464
sg31
(lp465
sa(dp466
g4
(lp467
sg436
(lp468
sg37
(lp469
sa(dp470
S'make'
p471
(lp472
sg4
(lp473
sg31
(lp474
sg37
(lp475
sa(dp476
g4
(lp477
sg382
(lp478
sa(dp479
g37
(lp480
sg4
(lp481
sg218
(lp482
sa(dp483
g4
(lp484
sa(dp485
g4
(lp486
sa(dp487
g4
(lp488
(lp489
g457
aasa(dp490
g4
(lp491
sa(dp492
g2
(lp493
sg4
(lp494
sa(dp495
g4
(lp496
sS'whip'
p497
(lp498
(lp499
S'water'
p500
aS'flaxseed'
p501
aasa(dp502
g4
(lp503
sg416
(lp504
sa(dp505
g53
(lp506
(lp507
g49
aa(lp508
g51
aasg4
(lp509
sa(dp510
g15
(lp511
(lp512
g10
aa(lp513
g12
aasg4
(lp514
sa(dp515
g4
(lp516
sS'blend'
p517
(lp518
(lp519
S'cocoa'
p520
ag170
aa(lp521
g68
ag69
aa(lp522
g68
ag170
aa(lp523
g71
aa(lp524
g18
aasa(dp525
g53
(lp526
sg15
(lp527
sg4
(lp528
sa(dp529
g15
(lp530
(lp531
g500
aasg4
(lp532
sa(dp533
g4
(lp534
sg77
(lp535
g25
asa(dp536
g4
(lp537
sS'flatten'
p538
(lp539
sS'form'
p540
(lp541
sa(dp542
g4
(lp543
sg31
(lp544
sa(dp545
S'scoop'
p546
(lp547
sg4
(lp548
sa(dp549
g4
(lp550
sa(dp551
g4
(lp552
sa(dp553
g4
(lp554
sa(dp555
g4
(lp556
sa(dp557
g4
(lp558
sa(dp559
g4
(lp560
sa(dp561
g4
(lp562
sa(dp563
g2
(lp564
sg4
(lp565
sa(dp566
g162
(lp567
sg4
(lp568
sa(dp569
g237
(lp570
sg4
(lp571
sa(dp572
g7
(lp573
(lp574
g49
aasg4
(lp575
sa(dp576
g7
(lp577
(lp578
g10
aa(lp579
g51
aasg4
(lp580
sa(dp581
g7
(lp582
(lp583
g18
aa(lp584
S'almond'
p585
aS'extract'
p586
aa(lp587
g12
ag586
aasg4
(lp588
sa(dp589
g21
(lp590
g24
asg4
(lp591
sa(dp592
g4
(lp593
sg29
(lp594
sa.