(dp0
S'cheese'
p1
(dp2
S'cheddar'
p3
I1
sS'spanish'
p4
NsS'parmesan'
p5
I1
sS'brie'
p6
I1
sS'provolone'
p7
I1
sS'beer'
p8
NsS'buxton'
p9
NsS'farmer'
p10
NsS'ricotta'
p11
I1
sS'brick'
p12
NsS'babybel'
p13
NsS'filata'
p14
NsS'chesire'
p15
NsS'grating'
p16
NsS'specialty'
p17
NsS'jack'
p18
NsS'cottage'
p19
I2
sS'mimolette'
p20
NsS'rope'
p21
NsS'processed'
p22
NsS'semi-hard'
p23
NsS'soft'
p24
NsS'hard'
p25
NsS'provel'
p26
NsS'cream'
p27
I2
sS'blue'
p28
NsS'fontina'
p29
I1
sS'banon'
p30
NsS'feta'
p31
I1
sS'goat'
p32
NsS'boursin'
p33
I1
sS'havarti'
p34
I1
sS'romano'
p35
NsS'washed-rind'
p36
NsS'basket'
p37
NsS'asiago'
p38
I1
sS'dovedale'
p39
NsS'wensleydale'
p40
NsS'shropshire'
p41
NsS'hispanic'
p42
NsS'derby'
p43
NsS'swiss'
p44
I1
sS'lancashire'
p45
NssS'radish'
p46
(dp47
S'watermelon'
p48
NssS'kale'
p49
(dp50
S'baby'
p51
NsS'black'
p52
NssS'pico'
p53
(dp54
S'gallo'
p55
NssS'bouquet'
p56
(dp57
S'garni'
p58
NsS'isolated'
p59
NssS'essence'
p60
(dp61
S'rose'
p62
NsS'kewra'
p63
NsS'khus'
p64
NssS'liqueur'
p65
(dp66
S'alize'
p67
NsS'coffee'
p68
NsS'amarula'
p69
Nsg27
NssS'wrap'
p70
(dp71
S'wonton'
p72
NsS'lumpia'
p73
NsS'mooshu'
p74
NsS'plastic'
p75
NsS'mu'
p76
NsS'moo'
p77
NssS'mushrooms'
p78
(dp79
S'portabella'
p80
NsS'cremini'
p81
NssS'rice'
p82
(dp83
S'brown'
p84
NsS'paper'
p85
Nsg52
NsS'red'
p86
NsS'wild'
p87
NsS'arborio'
p88
NsS'vermicelli'
p89
NsS'basmati'
p90
NsS'wine'
p91
NssS'dough'
p92
(dp93
S'phyllo'
p94
NsS'cookie'
p95
NssS'artichoke'
p96
(dp97
S'hearts'
p98
NsS'jerusalem'
p99
NssS'oven'
p100
(dp101
S'dutch'
p102
NssS'duck'
p103
(dp104
S'muscovy'
p105
NsS'bombay'
p106
NssS'kielbasa'
p107
(dp108
S'turkey'
p109
NsS'pork'
p110
NsS'beef'
p111
NssS'shortening'
p112
(dp113
S'vegetable'
p114
NssS'marrow'
p115
(dp116
g51
Nsg114
NsS'bone'
p117
NssS'lime'
p118
(dp119
S'kaffir'
p120
NsS'pickling'
p121
NssS'grape'
p122
(dp123
S'leaves'
p124
NsS'muscadine'
p125
NssS'ham'
p126
(dp127
S'hock'
p128
I2
ssg111
(dp129
S'jerky'
p130
I1
sS'salted'
p131
NsS'corned'
p132
NssS'sodium'
p133
(dp134
g59
NsS'citrate'
p135
NssS'cherry'
p136
(dp137
S'amarena'
p138
NsS'maraschino'
p139
NssS'monosodium'
p140
(dp141
S'glutamate'
p142
NssS'wrapper'
p143
(dp144
g72
Nsg73
Nsg74
Nsg75
I1
sg76
Nsg77
NssS'sugar'
p145
(dp146
g84
NsS'icing'
p147
NsS'raw'
p148
NsS'date'
p149
NsS'bakers'
p150
NsS'confectioners'
p151
NsS'invert'
p152
NsS'turbinado'
p153
NsS'barley'
p154
NsS'powdered'
p155
NsS'vanilla'
p156
NsS'muscovado'
p157
NssS'crab'
p158
(dp159
S'soft-shell'
p160
NssS'muffin'
p161
(dp162
S'english'
p163
NssS'melon'
p164
(dp165
S'musk'
p166
NsS'honeydew'
p167
NsS'bitter'
p168
NsS'pie'
p169
NssS'fry'
p170
(dp171
g59
NsS'french'
p172
NssS'nuts'
p173
(dp174
S'brazil'
p175
NsS'ginkgo'
p176
NsS'cashew'
p177
NsS'macadamia'
p178
NsS'pine'
p179
NssS'sauce'
p180
(dp181
S'tabasco'
p182
I1
sS'tartar'
p183
I1
sS'apple'
p184
NsS'fish'
p185
NsS'hoisin'
p186
I1
sS'hot'
p187
NsS'soy'
p188
Nsg169
NsS'marinara'
p189
I1
sS'bean'
p190
NsS'horseradish'
p191
I1
sS'oyster'
p192
NsS'cranberry'
p193
NsS'alfredo'
p194
I1
sS'barbecue'
p195
I1
sS'white'
p196
NsS'worcestershire'
p197
I1
sS'spaghetti'
p198
NsS'chili'
p199
Nsg86
NsS'sriracha'
p200
I1
ssS'spice'
p201
(dp202
S'mixed'
p203
NsS'kabsa'
p204
NsS'pumpkin'
p205
Nsg184
Nsg169
NssS'baba'
p206
(dp207
S'ghanous'
p208
Nsg59
NssS'marrows'
p209
(dp210
g51
Nsg114
Nsg117
NssS'mushroom'
p211
(dp212
g80
Nsg81
NssS'starch'
p213
(dp214
S'gelatinized'
p215
NsS'potato'
p216
NssS'flour'
p217
(dp218
S'wheat'
p219
NsS'gram'
p220
NsS'pastry'
p221
NsS'grain'
p222
NsS'corn'
p223
Nsg82
Nsg196
NsS'milled'
p224
NssS'grand'
p225
(dp226
S'marnier'
p227
NssS'bagna'
p228
(dp229
g59
NsS'cauda'
p230
NssS'squash'
p231
(dp232
S'butternut'
p233
NsS'acorn'
p234
NssS'chocolate'
p235
(dp236
S'dark'
p237
NsS'bittersweet'
p238
NsS'semisweet'
p239
NsS'bitter-sweet'
p240
NsS'unsweetened'
p241
Nsg196
NsS'semi-sweet'
p242
NsS'chips'
p243
I1
sS'milk'
p244
NsS'chip'
p245
NssS'orange'
p246
(dp247
S'mandarin'
p248
NsS'tangerine'
p249
NsS'zest'
p250
I1
sS'seville'
p251
Nssg190
(dp252
S'moth'
p253
NsS'navy'
p254
Nsg188
NsS'pinto'
p255
NsS'kidney'
p256
NsS'azuki'
p257
NsS'pink'
p258
NsS'lima'
p259
NsS'fermented'
p260
NsS'northern'
p261
NsS'long'
p262
NsS'cannellini'
p263
Nsg52
Nsg196
NsS'pea'
p264
NsS'fava'
p265
NsS'mung'
p266
NsS'great'
p267
NsS'thread'
p268
NsS'adzuki'
p269
Nsg156
NsS'jelly'
p270
NsS'green'
p271
Nsg193
NssS'molasses'
p272
(dp273
S'pomegranate'
p274
Nsg52
NssS'batter'
p275
(dp276
S'cake'
p277
NsS'pancake'
p278
NssS'liver'
p279
(dp280
S'goose'
p281
NsS'chicken'
p282
Nsg110
NssS'chile'
p283
(dp284
S'habanero'
p285
NsS'ancho'
p286
NssS'groat'
p287
(dp288
S'buckwheat'
p289
NssS'sweetener'
p290
(dp291
S'artificial'
p292
NssS'bread'
p293
(dp294
S'pumpernickel'
p295
I1
sg219
Nsg293
NsS'crumbs'
p296
I1
sg216
Nsg196
NsS'rye'
p297
I1
sS'sourdough'
p298
I1
sg172
NsS'ciabatta'
p299
I1
ssS'cocoa'
p300
(dp301
S'powder'
p302
NsS'nibs'
p303
I1
ssS'mahi'
p304
(dp305
g304
NssS'bel'
p306
(dp307
S'paese'
p308
NssS'onion'
p309
(dp310
g196
Nsg271
NsS'yellow'
p311
Nsg86
NsS'vidalia'
p312
NssS'lettuce'
p313
(dp314
S'romaine'
p315
NsS'bibb'
p316
NsS'iceberg'
p317
NssS'syrup'
p318
(dp319
S'golden'
p320
NsS'orgean'
p321
Nsg223
NsS'ginger'
p322
NsS'simple'
p323
NsS'maple'
p324
NssS'cracker'
p325
(dp326
S'graham'
p327
NssS'roll'
p328
(dp329
g19
Nsg270
NssS'kern'
p330
(dp331
g271
NssS'recado'
p332
(dp333
S'rojo'
p334
Nsg59
NssS'seed'
p335
(dp336
S'mustard'
p337
NsS'annatto'
p338
NsS'flax'
p339
NsS'fennel'
p340
NsS'sesame'
p341
NsS'caraway'
p342
NsS'sunflower'
p343
NsS'nigella'
p344
NsS'celery'
p345
NsS'poppy'
p346
Nsg205
Nssg219
(dp347
S'berries'
p348
Nsg59
NsS'bulgur'
p349
NsS'germ'
p350
Nssg86
(dp351
S'pepper'
p352
NsS'cabbage'
p353
Nsg190
NsS'leicester'
p354
NssS'gran'
p355
(dp356
g227
Nssg277
(dp357
S'pound'
p358
NssS'bamboo'
p359
(dp360
S'shoot'
p361
NsS'preserved'
p362
Nssg302
(dp363
g337
Nsg300
NsS'amchoor'
p364
NsS'five-spice'
p365
NsS'garlic'
p366
NsS'file'
p367
Nsg199
NsS'dhania-jeera'
p368
NsS'baking'
p369
Nsg309
NsS'meringue'
p370
NsS'curry'
p371
Nsg86
NssS'kiwi'
p372
(dp373
g51
NssS'irish'
p374
(dp375
g68
NsS'mist'
p376
Nsg27
I1
ssS'seasoning'
p377
(dp378
S'poultry'
p379
NsS'smoke'
p380
NssS'nut'
p381
(dp382
g175
Nsg176
Nsg177
Nsg178
Nsg179
NssS'skin'
p383
(dp384
g72
NssS'bacon'
p385
(dp386
S'grease'
p387
I1
sS'canadian'
p388
Nssg322
(dp389
S'snap'
p390
Nsg8
I1
sS'ale'
p391
I1
sS'crystallized'
p392
NssS'pig'
p393
(dp394
S'feet'
p395
NsS'tongue'
p396
NsS'cheek'
p397
NsS'knuckle'
p398
NssS'juice'
p399
(dp400
S'cane'
p401
NsS'lemon'
p402
I2
sg184
I2
sg136
I2
sg48
I2
sg246
I2
sg118
I2
ssS'matzo'
p403
(dp404
S'meal'
p405
NssS'oil'
p406
(dp407
S'olive'
p408
NsS'coconut'
p409
Nsg114
NsS'palm'
p410
NsS'canola'
p411
NsS'citrus'
p412
NsS'peanut'
p413
Nsg223
NsS'argan'
p414
Nssg410
(dp415
g98
Nsg145
NssS'dried'
p416
(dp417
S'apricots'
p418
NsS'leeks'
p419
NssS'sea'
p420
(dp421
S'cucumber'
p422
NsS'bream'
p423
NssS'sprouts'
p424
(dp425
S'alfalfa'
p426
Nsg190
NsS'brussel'
p427
NssS'bark'
p428
(dp429
S'almond'
p430
NsS'peppermint'
p431
NssS'extract'
p432
(dp433
g156
I1
sg430
I1
sg431
I1
ssS'cacao'
p434
(dp435
S'nib'
p436
I1
sg302
NssS'whip'
p437
(dp438
S'miracle'
p439
NsS'cool'
p440
Nssg27
(dp441
S'heavy'
p442
Nsg409
Nsg183
I2
sS'light'
p443
NsS'ice'
p444
I2
sS'sour'
p445
I2
sg219
I2
ssS'sausage'
p446
(dp447
S'andouille'
p448
I1
sS'creole'
p449
NsS'breakfast'
p450
NsS'chaurice'
p451
NssS'leaf'
p452
(dp453
g371
NsS'thyme'
p454
NsS'bay'
p455
NssS'cooking'
p456
(dp457
S'spray'
p458
I1
ssS'espresso'
p459
(dp460
S'instant'
p461
Nssg244
(dp462
g430
NsS'2%'
p463
NsS'condensed'
p464
NsS'low-fat'
p465
NsS'1%'
p466
Nsg82
Nsg188
NsS'evaporated'
p467
NsS'whole'
p468
Nsg409
NssS'tomato'
p469
(dp470
g399
Nsg271
NsS'puree'
p471
NsS'rotel'
p472
Nsg136
NsS'plum'
p473
Nsg180
NsS'paste'
p474
NssS'creme'
p475
(dp476
S'cassis'
p477
Nsg434
NsS'brulee'
p478
NsS'menthe'
p479
I2
sS'fraiche'
p480
I2
ssS'crema'
p481
(dp482
S'leche'
p483
Nssg221
(dp484
S'puff'
p485
NssS'pudding'
p486
(dp487
g156
Nsg235
NsS'tapioca'
p488
NsS'mix'
p489
NsS'indian'
p490
Nsg82
NssS'mui'
p491
(dp492
S'hing'
p493
Nssg264
(dp494
g390
NsS'split'
p495
NsS'black-eyed'
p496
NsS'snow'
p497
NssS'pan'
p498
(dp499
S'bundt'
p500
Nssg352
(dp501
S'aleppo'
p502
Nsg402
Nsg283
Nsg286
NsS'birdseye'
p503
NsS'sweet'
p504
NsS'chipotle'
p505
NsS'cayenne'
p506
NsS'peppadew'
p507
Nsg199
NssS'beurre'
p508
(dp509
S'manie'
p510
NsS'blanc'
p511
NssS'hash'
p512
(dp513
g84
Nsg59
Nssg337
(dp514
g163
NssS'peel'
p515
(dp516
g246
Nsg402
Nsg118
NssS'snapper'
p517
(dp518
g86
NssS'ammonium'
p519
(dp520
g59
NsS'bicarbonate'
p521
I2
ssS'water'
p522
(dp523
S'chestnut'
p524
I2
sS'tonic'
p525
I2
sS'flower'
p526
I2
sg246
I2
sg62
I2
sS'acidulated'
p527
I2
sg59
Nsg63
I2
ssS'jamon'
p528
(dp529
S'serrano'
p530
Nssg149
(dp531
S'chinese'
p532
Nssg402
(dp533
g399
NsS'balm'
p534
NsS'grass'
p535
Nsg362
Nsg250
I1
ssg353
(dp536
g532
NssS'foie'
p537
(dp538
S'gras'
p539
Nsg59
Nssg474
(dp540
S'anchovy'
p541
Nsg430
NssS'broccoli'
p542
(dp543
S'raab'
p544
NssS'butter'
p545
(dp546
g184
NsS'clarified'
p547
Nsg413
I1
sg245
Nsg430
Nsg178
Nsg243
NssS'vinegar'
p548
(dp549
S'balsamic'
p550
Nsg82
NsS'cider'
p551
NsS'malt'
p552
Nsg91
NssS'xantham'
p553
(dp554
g59
NsS'gum'
p555
NssS'masa'
p556
(dp557
S'harina'
p558
Nssg216
(dp559
S'flakes'
p560
Nsg243
Nsg504
NssS'panna'
p561
(dp562
S'cotta'
p563
NssS'bok'
p564
(dp565
S'choy'
p566
Nsg59
NsS'choi'
p567
NssS'beans'
p568
(dp569
g253
Nsg254
Nsg188
Nsg255
Nsg256
Nsg257
Nsg258
Nsg259
Nsg260
Nsg261
Nsg262
Nsg263
Nsg52
Nsg196
Nsg264
Nsg265
Nsg266
Nsg267
Nsg268
Nsg269
Nsg156
Nsg270
Nsg271
Nsg193
NssS'berry'
p570
(dp571
S'goji'
p572
NssS'soda'
p573
(dp574
g522
NsS'crackers'
p575
I1
sg369
NssS'seaweed'
p576
(dp577
S'wakame'
p578
NssS'smoked'
p579
(dp580
g109
I1
sS'salmon'
p581
I1
ssS'egg'
p582
(dp583
S'hundred-year'
p584
NsS'substitute'
p585
Nsg362
Nssg91
(dp586
g196
Nsg456
NsS'zinfandel'
p587
Nsg86
Nsg444
Nss.