(dp0
S'kale'
p1
(dp2
S'baby'
p3
NsS'black'
p4
NssS'essence'
p5
(dp6
S'rose'
p7
NsS'kewra'
p8
NsS'khus'
p9
NssS'dough'
p10
(dp11
S'phyllo'
p12
NsS'cookie'
p13
NssS'artichoke'
p14
(dp15
S'hearts'
p16
NsS'jerusalem'
p17
NssS'oven'
p18
(dp19
S'dutch'
p20
NssS'skin'
p21
(dp22
S'wonton'
p23
NssS'milk'
p24
(dp25
S'almond'
p26
NsS'2%'
p27
NsS'condensed'
p28
NsS'low-fat'
p29
NsS'1%'
p30
NsS'rice'
p31
NsS'soy'
p32
NsS'evaporated'
p33
NsS'whole'
p34
NsS'coconut'
p35
NssS'grape'
p36
(dp37
S'leaves'
p38
NsS'muscadine'
p39
NssS'ham'
p40
(dp41
S'hock'
p42
NssS'sodium'
p43
(dp44
S'citrate'
p45
NssS'cherry'
p46
(dp47
S'amarena'
p48
NsS'maraschino'
p49
NssS'sugar'
p50
(dp51
S'brown'
p52
NsS'date'
p53
NsS'icing'
p54
NsS'raw'
p55
NsS'powdered'
p56
NsS'invert'
p57
NsS'turbinado'
p58
NsS'muscovado'
p59
NsS'barley'
p60
NssS'muffin'
p61
(dp62
S'english'
p63
NssS'melon'
p64
(dp65
S'musk'
p66
NsS'honeydew'
p67
NsS'bitter'
p68
NsS'pie'
p69
Nssg31
(dp70
g52
NsS'paper'
p71
Nsg4
NsS'red'
p72
NsS'wild'
p73
NsS'arborio'
p74
NsS'vermicelli'
p75
NsS'basmati'
p76
NsS'wine'
p77
NssS'sauce'
p78
(dp79
S'tabasco'
p80
NsS'tartar'
p81
NsS'apple'
p82
NsS'fish'
p83
NsS'hoisin'
p84
NsS'hot'
p85
Nsg32
Nsg69
NsS'marinara'
p86
NsS'bean'
p87
NsS'horseradish'
p88
NsS'oyster'
p89
NsS'alfredo'
p90
NsS'barbecue'
p91
NsS'white'
p92
NsS'worcestershire'
p93
NsS'spaghetti'
p94
NsS'chili'
p95
Nsg72
NsS'sriracha'
p96
NssS'starch'
p97
(dp98
S'gelatinized'
p99
NsS'potato'
p100
NssS'flour'
p101
(dp102
S'wheat'
p103
NsS'corn'
p104
NsS'grain'
p105
NsS'gram'
p106
Nsg92
Nsg31
NsS'milled'
p107
Nssg87
(dp108
S'moth'
p109
NsS'navy'
p110
Nsg32
NsS'pinto'
p111
NsS'kidney'
p112
NsS'azuki'
p113
NsS'pink'
p114
NsS'lima'
p115
NsS'fermented'
p116
NsS'northern'
p117
NsS'long'
p118
NsS'cannellini'
p119
Nsg4
Nsg92
NsS'pea'
p120
NsS'fava'
p121
NsS'mung'
p122
NsS'great'
p123
NsS'thread'
p124
NsS'adzuki'
p125
NsS'vanilla'
p126
NsS'jelly'
p127
NsS'green'
p128
NsS'cranberry'
p129
NssS'molasses'
p130
(dp131
S'pomegranate'
p132
Nsg4
NssS'batter'
p133
(dp134
S'cake'
p135
NsS'pancake'
p136
NssS'sweetener'
p137
(dp138
S'artificial'
p139
NssS'bread'
p140
(dp141
g100
NsS'rye'
p142
NsS'french'
p143
NsS'ciabatta'
p144
NsS'pumpernickel'
p145
NsS'crumbs'
p146
Nsg92
NssS'mahi'
p147
(dp148
g147
NssS'onion'
p149
(dp150
g92
Nsg128
NsS'yellow'
p151
Nsg72
NsS'vidalia'
p152
NssS'kern'
p153
(dp154
g128
NssS'gran'
p155
(dp156
S'marnier'
p157
NssS'bamboo'
p158
(dp159
S'shoot'
p160
NsS'preserved'
p161
NssS'seaweed'
p162
(dp163
S'wakame'
p164
NssS'seasoning'
p165
(dp166
S'poultry'
p167
NsS'smoke'
p168
NssS'nut'
p169
(dp170
S'brazil'
p171
NsS'ginkgo'
p172
NsS'cashew'
p173
NsS'macadamia'
p174
NsS'pine'
p175
NssS'bacon'
p176
(dp177
S'grease'
p178
NsS'canadian'
p179
NssS'wrap'
p180
(dp181
g23
NsS'lumpia'
p182
NsS'mooshu'
p183
NsS'plastic'
p184
NsS'mu'
p185
NsS'moo'
p186
NssS'palm'
p187
(dp188
g16
Nsg50
NssS'powder'
p189
(dp190
S'mustard'
p191
NsS'cocoa'
p192
NsS'amchoor'
p193
NsS'five-spice'
p194
NsS'garlic'
p195
NsS'file'
p196
Nsg95
NsS'dhania-jeera'
p197
NsS'baking'
p198
Nsg149
NsS'meringue'
p199
NsS'curry'
p200
Nsg72
NssS'sea'
p201
(dp202
S'cucumber'
p203
Nssg103
(dp204
S'berries'
p205
NsS'bulgur'
p206
NsS'germ'
p207
NssS'bark'
p208
(dp209
g26
NsS'peppermint'
p210
NssS'whip'
p211
(dp212
S'miracle'
p213
NsS'cool'
p214
NssS'sausage'
p215
(dp216
S'andouille'
p217
NsS'creole'
p218
NsS'breakfast'
p219
NsS'chaurice'
p220
NssS'leaf'
p221
(dp222
g200
NsS'thyme'
p223
NsS'bay'
p224
NssS'cooking'
p225
(dp226
S'spray'
p227
NssS'espresso'
p228
(dp229
S'instant'
p230
NssS'creme'
p231
(dp232
S'cassis'
p233
NsS'cacao'
p234
NsS'brulee'
p235
NsS'menthe'
p236
NsS'fraiche'
p237
NssS'crema'
p238
(dp239
S'leche'
p240
NssS'mui'
p241
(dp242
S'hing'
p243
Nssg120
(dp244
S'snap'
p245
NsS'split'
p246
NsS'black-eyed'
p247
NsS'snow'
p248
Nssg72
(dp249
S'pepper'
p250
NsS'cabbage'
p251
Nsg87
NsS'leicester'
p252
Nssg250
(dp253
S'aleppo'
p254
NsS'chile'
p255
NsS'ancho'
p256
NsS'birdseye'
p257
NsS'sweet'
p258
NsS'chipotle'
p259
NsS'cayenne'
p260
NsS'peppadew'
p261
Nsg95
NssS'beurre'
p262
(dp263
S'manie'
p264
NsS'blanc'
p265
NssS'hash'
p266
(dp267
g52
NssS'peel'
p268
(dp269
S'orange'
p270
NsS'lemon'
p271
NsS'lime'
p272
NssS'snapper'
p273
(dp274
g72
NssS'water'
p275
(dp276
S'chestnut'
p277
NsS'tonic'
p278
NsS'flower'
p279
Nsg7
NsS'acidulated'
p280
Nsg8
Nsg270
NssS'jamon'
p281
(dp282
S'serrano'
p283
NssS'paste'
p284
(dp285
S'anchovy'
p286
Nsg26
NssS'marrows'
p287
(dp288
g3
NsS'vegetable'
p289
NsS'bone'
p290
NssS'vinegar'
p291
(dp292
S'balsamic'
p293
Nsg31
NsS'cider'
p294
NsS'malt'
p295
Nsg77
NssS'panna'
p296
(dp297
S'cotta'
p298
NssS'pico'
p299
(dp300
S'gallo'
p301
NssS'pudding'
p302
(dp303
S'tapioca'
p304
NsS'mix'
p305
NsS'indian'
p306
Nsg31
NssS'berry'
p307
(dp308
S'goji'
p309
NssS'soda'
p310
(dp311
S'crackers'
p312
Nsg198
NssS'cheese'
p313
(dp314
S'boursin'
p315
NsS'hard'
p316
NsS'feta'
p317
NsS'chesire'
p318
NsS'semi-hard'
p319
NsS'romano'
p320
NsS'farmer'
p321
NsS'cheddar'
p322
NsS'specialty'
p323
NsS'washed-rind'
p324
NsS'soft'
p325
NsS'swiss'
p326
NsS'jack'
p327
NsS'parmesan'
p328
NsS'cottage'
p329
NsS'brie'
p330
NsS'cream'
p331
NsS'blue'
p332
NsS'rope'
p333
NsS'asiago'
p334
NsS'dovedale'
p335
NsS'mimolette'
p336
NsS'wensleydale'
p337
NsS'hispanic'
p338
NsS'grating'
p339
NsS'provel'
p340
NsS'filata'
p341
NsS'shropshire'
p342
NsS'fontina'
p343
NsS'banon'
p344
NsS'beer'
p345
NsS'spanish'
p346
NsS'processed'
p347
NsS'buxton'
p348
NsS'derby'
p349
NsS'basket'
p350
NsS'ricotta'
p351
NsS'brick'
p352
NsS'lancashire'
p353
NsS'goat'
p354
NsS'babybel'
p355
NssS'bouquet'
p356
(dp357
S'garni'
p358
NssS'radish'
p359
(dp360
S'watermelon'
p361
NssS'liqueur'
p362
(dp363
S'alize'
p364
NsS'coffee'
p365
NsS'amarula'
p366
Nsg331
NssS'mushrooms'
p367
(dp368
S'portabella'
p369
NsS'cremini'
p370
NssS'lettuce'
p371
(dp372
S'romaine'
p373
NsS'bibb'
p374
NsS'iceberg'
p375
NssS'duck'
p376
(dp377
S'muscovy'
p378
NsS'bombay'
p379
NssS'kielbasa'
p380
(dp381
S'turkey'
p382
NsS'pork'
p383
NsS'beef'
p384
Nssg251
(dp385
S'chinese'
p386
Nssg272
(dp387
S'kaffir'
p388
NsS'pickling'
p389
Nssg384
(dp390
S'jerky'
p391
NsS'salted'
p392
NsS'corned'
p393
NssS'monosodium'
p394
(dp395
S'glutamate'
p396
NssS'wrapper'
p397
(dp398
g23
Nsg182
Nsg183
Nsg184
Nsg185
Nsg186
NssS'crab'
p399
(dp400
S'soft-shell'
p401
NssS'fry'
p402
(dp403
g143
NssS'syrup'
p404
(dp405
S'golden'
p406
NsS'orgean'
p407
Nsg104
NsS'ginger'
p408
NsS'simple'
p409
NsS'maple'
p410
NssS'baba'
p411
(dp412
S'ghanous'
p413
NssS'tomato'
p414
(dp415
S'juice'
p416
Nsg128
NsS'puree'
p417
NsS'rotel'
p418
Nsg46
NsS'plum'
p419
Nsg78
Nsg284
NssS'mushroom'
p420
(dp421
g369
Nsg370
NssS'bagna'
p422
(dp423
S'cauda'
p424
NssS'squash'
p425
(dp426
S'butternut'
p427
NsS'acorn'
p428
NssS'chocolate'
p429
(dp430
S'semisweet'
p431
NsS'dark'
p432
NsS'unsweetened'
p433
Nsg92
NsS'semi-sweet'
p434
NsS'chips'
p435
Nsg24
Nssg270
(dp436
S'mandarin'
p437
NsS'tangerine'
p438
NsS'seville'
p439
NssS'liver'
p440
(dp441
S'goose'
p442
NsS'chicken'
p443
Nsg383
Nssg255
(dp444
S'habanero'
p445
Nsg256
NssS'groat'
p446
(dp447
S'buckwheat'
p448
NssS'spice'
p449
(dp450
S'mixed'
p451
NsS'kabsa'
p452
NsS'pumpkin'
p453
Nsg82
Nsg69
NssS'bel'
p454
(dp455
S'paese'
p456
NssS'cracker'
p457
(dp458
S'graham'
p459
NssS'recado'
p460
(dp461
S'rojo'
p462
Nssg135
(dp463
S'pound'
p464
NssS'dried'
p465
(dp466
S'apricots'
p467
NsS'leeks'
p468
NssS'kiwi'
p469
(dp470
g3
NssS'irish'
p471
(dp472
g365
NsS'mist'
p473
Nsg331
Nssg408
(dp474
g245
Nsg345
NsS'ale'
p475
NsS'crystallized'
p476
NssS'pig'
p477
(dp478
S'feet'
p479
NsS'tongue'
p480
NsS'cheek'
p481
NsS'knuckle'
p482
Nssg416
(dp483
g271
Nsg82
Nsg46
Nsg361
Nsg270
Nsg272
NssS'matzo'
p484
(dp485
S'meal'
p486
NssS'seed'
p487
(dp488
g191
NsS'annatto'
p489
NsS'flax'
p490
NsS'fennel'
p491
NsS'sesame'
p492
NsS'caraway'
p493
NsS'sunflower'
p494
NsS'nigella'
p495
NsS'celery'
p496
NsS'poppy'
p497
Nsg453
NssS'pastry'
p498
(dp499
S'puff'
p500
NssS'sprouts'
p501
(dp502
S'alfalfa'
p503
Nsg87
NsS'brussel'
p504
Nssg331
(dp505
S'heavy'
p506
Nsg35
Nsg81
NsS'light'
p507
NsS'ice'
p508
NsS'sour'
p509
Nsg103
NssS'finnan'
p510
(dp511
S'haddie'
p512
Nssg271
(dp513
g416
NsS'balm'
p514
NsS'grass'
p515
Nsg161
NssS'nuts'
p516
(dp517
g171
Nsg172
Nsg173
Nsg174
Nsg175
NssS'bok'
p518
(dp519
S'choy'
p520
NsS'choi'
p521
NssS'grand'
p522
(dp523
g157
NssS'beans'
p524
(dp525
g109
Nsg110
Nsg32
Nsg111
Nsg112
Nsg113
Nsg114
Nsg115
Nsg116
Nsg117
Nsg118
Nsg119
Nsg4
Nsg92
Nsg120
Nsg121
Nsg122
Nsg123
Nsg124
Nsg125
Nsg126
Nsg127
Nsg128
Nsg129
NssS'roll'
p526
(dp527
g329
Nsg127
NssS'pan'
p528
(dp529
S'bundt'
p530
NssS'oil'
p531
(dp532
S'olive'
p533
Nsg35
Nsg289
Nsg187
NsS'canola'
p534
NsS'citrus'
p535
NsS'peanut'
p536
Nsg104
NsS'argan'
p537
Nssg191
(dp538
g63
NssS'ammonium'
p539
(dp540
S'bicarbonate'
p541
Nssg53
(dp542
g386
NssS'marrow'
p543
(dp544
g3
Nsg289
Nsg290
NssS'foie'
p545
(dp546
S'gras'
p547
NssS'broccoli'
p548
(dp549
S'raab'
p550
NssS'butter'
p551
(dp552
S'clarified'
p553
Nsg536
Nsg26
Nsg174
Nsg82
NssS'xantham'
p554
(dp555
S'gum'
p556
NssS'masa'
p557
(dp558
S'harina'
p559
Nssg100
(dp560
S'flakes'
p561
Nsg435
Nsg258
NssS'smoked'
p562
(dp563
S'salmon'
p564
NssS'egg'
p565
(dp566
S'hundred-year'
p567
NsS'substitute'
p568
Nsg161
Nssg77
(dp569
g92
Nsg225
NsS'zinfandel'
p570
Nsg72
Nsg508
Nss.