(dp0
S'cheese'
p1
(dp2
S'boursin'
p3
NsS'hard'
p4
NsS'feta'
p5
NsS'chesire'
p6
NsS'semi-hard'
p7
NsS'romano'
p8
NsS'farmer'
p9
NsS'cheddar'
p10
NsS'specialty'
p11
NsS'washed-rind'
p12
NsS'soft'
p13
NsS'swiss'
p14
NsS'jack'
p15
NsS'parmesan'
p16
NsS'cottage'
p17
NsS'brie'
p18
NsS'cream'
p19
NsS'blue'
p20
NsS'rope'
p21
NsS'asiago'
p22
NsS'dovedale'
p23
NsS'mimolette'
p24
NsS'wensleydale'
p25
NsS'hispanic'
p26
NsS'grating'
p27
NsS'provel'
p28
NsS'filata'
p29
NsS'shropshire'
p30
NsS'fontina'
p31
NsS'banon'
p32
NsS'beer'
p33
NsS'spanish'
p34
NsS'processed'
p35
NsS'buxton'
p36
NsS'derby'
p37
NsS'basket'
p38
NsS'ricotta'
p39
NsS'brick'
p40
NsS'lancashire'
p41
NsS'goat'
p42
NsS'babybel'
p43
NssS'radish'
p44
(dp45
S'watermelon'
p46
NssS'kale'
p47
(dp48
S'baby'
p49
NsS'black'
p50
NssS'pico'
p51
(dp52
S'gallo'
p53
NssS'bouquet'
p54
(dp55
S'garni'
p56
NssS'essence'
p57
(dp58
S'rose'
p59
NsS'kewra'
p60
NsS'khus'
p61
NssS'liqueur'
p62
(dp63
S'alize'
p64
NsS'coffee'
p65
NsS'amarula'
p66
Nsg19
NssS'wine'
p67
(dp68
S'white'
p69
NsS'cooking'
p70
NsS'zinfandel'
p71
NsS'red'
p72
NsS'ice'
p73
NssS'mushrooms'
p74
(dp75
S'portabella'
p76
NsS'cremini'
p77
NssS'rice'
p78
(dp79
S'brown'
p80
NsS'paper'
p81
Nsg50
Nsg72
NsS'wild'
p82
NsS'arborio'
p83
NsS'vermicelli'
p84
NsS'basmati'
p85
Nsg67
NssS'dough'
p86
(dp87
S'phyllo'
p88
NsS'cookie'
p89
NssS'artichoke'
p90
(dp91
S'hearts'
p92
NsS'jerusalem'
p93
NssS'oven'
p94
(dp95
S'dutch'
p96
NssS'duck'
p97
(dp98
S'muscovy'
p99
NsS'bombay'
p100
NssS'kielbasa'
p101
(dp102
S'turkey'
p103
NsS'pork'
p104
NsS'beef'
p105
NssS'marrow'
p106
(dp107
g49
NsS'vegetable'
p108
NsS'bone'
p109
NssS'lime'
p110
(dp111
S'kaffir'
p112
NsS'pickling'
p113
NssS'grape'
p114
(dp115
S'leaves'
p116
NsS'muscadine'
p117
NssS'ham'
p118
(dp119
S'hock'
p120
Nssg105
(dp121
S'jerky'
p122
NsS'salted'
p123
NsS'corned'
p124
NssS'sodium'
p125
(dp126
S'citrate'
p127
NssS'cherry'
p128
(dp129
S'amarena'
p130
NsS'maraschino'
p131
NssS'monosodium'
p132
(dp133
S'glutamate'
p134
NssS'wrapper'
p135
(dp136
S'wonton'
p137
NsS'lumpia'
p138
NsS'mooshu'
p139
NsS'plastic'
p140
NsS'mu'
p141
NsS'moo'
p142
NssS'sugar'
p143
(dp144
g80
NsS'date'
p145
NsS'icing'
p146
NsS'raw'
p147
NsS'powdered'
p148
NsS'invert'
p149
NsS'turbinado'
p150
NsS'muscovado'
p151
NsS'barley'
p152
NssS'crab'
p153
(dp154
S'soft-shell'
p155
NssS'muffin'
p156
(dp157
S'english'
p158
NssS'melon'
p159
(dp160
S'musk'
p161
NsS'honeydew'
p162
NsS'bitter'
p163
NsS'pie'
p164
NssS'fry'
p165
(dp166
S'french'
p167
NssS'nuts'
p168
(dp169
S'brazil'
p170
NsS'ginkgo'
p171
NsS'cashew'
p172
NsS'macadamia'
p173
NsS'pine'
p174
NssS'sauce'
p175
(dp176
S'tabasco'
p177
NsS'tartar'
p178
NsS'apple'
p179
NsS'fish'
p180
NsS'hoisin'
p181
NsS'hot'
p182
NsS'soy'
p183
Nsg164
NsS'marinara'
p184
NsS'bean'
p185
NsS'horseradish'
p186
NsS'oyster'
p187
NsS'alfredo'
p188
NsS'barbecue'
p189
Nsg69
NsS'worcestershire'
p190
NsS'spaghetti'
p191
NsS'chili'
p192
Nsg72
NssS'spice'
p193
(dp194
S'mixed'
p195
NsS'kabsa'
p196
NsS'pumpkin'
p197
Nsg179
Nsg164
NssS'baba'
p198
(dp199
S'ghanous'
p200
NssS'marrows'
p201
(dp202
g49
Nsg108
Nsg109
NssS'mushroom'
p203
(dp204
g76
Nsg77
NssS'starch'
p205
(dp206
S'gelatinized'
p207
NsS'potato'
p208
NssS'flour'
p209
(dp210
S'wheat'
p211
NsS'corn'
p212
NsS'grain'
p213
NsS'gram'
p214
Nsg69
Nsg78
NsS'milled'
p215
NssS'grand'
p216
(dp217
S'marnier'
p218
NssS'bagna'
p219
(dp220
S'cauda'
p221
NssS'squash'
p222
(dp223
S'butternut'
p224
NsS'acorn'
p225
NssS'chocolate'
p226
(dp227
S'semisweet'
p228
NsS'dark'
p229
NsS'unsweetened'
p230
Nsg69
NsS'semi-sweet'
p231
NsS'chips'
p232
NsS'milk'
p233
NssS'orange'
p234
(dp235
S'mandarin'
p236
NsS'tangerine'
p237
NsS'seville'
p238
Nssg185
(dp239
S'moth'
p240
NsS'navy'
p241
Nsg183
NsS'pinto'
p242
NsS'kidney'
p243
NsS'azuki'
p244
NsS'pink'
p245
NsS'lima'
p246
NsS'fermented'
p247
NsS'northern'
p248
NsS'long'
p249
NsS'cannellini'
p250
Nsg50
Nsg69
NsS'pea'
p251
NsS'fava'
p252
NsS'mung'
p253
NsS'great'
p254
NsS'thread'
p255
NsS'adzuki'
p256
NsS'vanilla'
p257
NsS'jelly'
p258
NsS'green'
p259
NsS'cranberry'
p260
NssS'molasses'
p261
(dp262
S'pomegranate'
p263
Nsg50
NssS'batter'
p264
(dp265
S'cake'
p266
NsS'pancake'
p267
NssS'liver'
p268
(dp269
S'goose'
p270
NsS'chicken'
p271
Nsg104
NssS'chile'
p272
(dp273
S'habanero'
p274
NsS'ancho'
p275
NssS'groat'
p276
(dp277
S'buckwheat'
p278
NssS'sweetener'
p279
(dp280
S'artificial'
p281
NssS'bread'
p282
(dp283
g208
NsS'rye'
p284
Nsg167
NsS'ciabatta'
p285
NsS'pumpernickel'
p286
NsS'crumbs'
p287
Nsg69
NssS'mahi'
p288
(dp289
g288
NssS'bel'
p290
(dp291
S'paese'
p292
NssS'onion'
p293
(dp294
g69
Nsg259
NsS'yellow'
p295
Nsg72
NsS'vidalia'
p296
NssS'lettuce'
p297
(dp298
S'romaine'
p299
NsS'bibb'
p300
NsS'iceberg'
p301
NssS'syrup'
p302
(dp303
S'golden'
p304
NsS'orgean'
p305
Nsg212
NsS'ginger'
p306
NsS'simple'
p307
NsS'maple'
p308
NssS'cracker'
p309
(dp310
S'graham'
p311
NssS'roll'
p312
(dp313
g17
Nsg258
NssS'kern'
p314
(dp315
g259
NssS'recado'
p316
(dp317
S'rojo'
p318
NssS'seed'
p319
(dp320
S'mustard'
p321
NsS'annatto'
p322
NsS'flax'
p323
NsS'fennel'
p324
NsS'sesame'
p325
NsS'caraway'
p326
NsS'sunflower'
p327
NsS'nigella'
p328
NsS'celery'
p329
NsS'poppy'
p330
Nsg197
Nssg211
(dp331
S'berries'
p332
NsS'bulgur'
p333
NsS'germ'
p334
Nssg72
(dp335
S'pepper'
p336
NsS'cabbage'
p337
Nsg185
NsS'leicester'
p338
NssS'gran'
p339
(dp340
g218
Nssg266
(dp341
S'pound'
p342
NssS'bamboo'
p343
(dp344
S'shoot'
p345
NsS'preserved'
p346
NssS'powder'
p347
(dp348
g321
NsS'cocoa'
p349
NsS'amchoor'
p350
NsS'five-spice'
p351
NsS'garlic'
p352
NsS'file'
p353
Nsg192
NsS'dhania-jeera'
p354
NsS'baking'
p355
Nsg293
NsS'meringue'
p356
NsS'curry'
p357
Nsg72
NssS'kiwi'
p358
(dp359
g49
NssS'irish'
p360
(dp361
g65
NsS'mist'
p362
Nsg19
NssS'seasoning'
p363
(dp364
S'poultry'
p365
NsS'smoke'
p366
NssS'nut'
p367
(dp368
g170
Nsg171
Nsg172
Nsg173
Nsg174
NssS'skin'
p369
(dp370
g137
NssS'bacon'
p371
(dp372
S'grease'
p373
NsS'canadian'
p374
Nssg306
(dp375
S'snap'
p376
Nsg33
NsS'ale'
p377
NsS'crystallized'
p378
NssS'pig'
p379
(dp380
S'feet'
p381
NsS'tongue'
p382
NsS'cheek'
p383
NsS'knuckle'
p384
NssS'juice'
p385
(dp386
S'lemon'
p387
Nsg179
Nsg128
Nsg46
Nsg234
Nsg110
NssS'matzo'
p388
(dp389
S'meal'
p390
NssS'oil'
p391
(dp392
S'olive'
p393
NsS'coconut'
p394
Nsg108
NsS'palm'
p395
NsS'canola'
p396
NsS'citrus'
p397
NsS'peanut'
p398
Nsg212
NsS'argan'
p399
Nssg395
(dp400
g92
Nsg143
NssS'dried'
p401
(dp402
S'apricots'
p403
NsS'leeks'
p404
NssS'sea'
p405
(dp406
S'cucumber'
p407
NssS'sprouts'
p408
(dp409
S'alfalfa'
p410
Nsg185
NsS'brussel'
p411
NssS'bark'
p412
(dp413
S'almond'
p414
NsS'peppermint'
p415
NssS'whip'
p416
(dp417
S'miracle'
p418
NsS'cool'
p419
Nssg19
(dp420
S'heavy'
p421
Nsg394
Nsg178
NsS'light'
p422
Nsg73
NsS'sour'
p423
Nsg211
NssS'finnan'
p424
(dp425
S'haddie'
p426
NssS'sausage'
p427
(dp428
S'andouille'
p429
NsS'creole'
p430
NsS'breakfast'
p431
NsS'chaurice'
p432
NssS'leaf'
p433
(dp434
g357
NsS'thyme'
p435
NsS'bay'
p436
Nssg70
(dp437
S'spray'
p438
NssS'espresso'
p439
(dp440
S'instant'
p441
Nssg233
(dp442
g414
NsS'2%'
p443
NsS'condensed'
p444
NsS'low-fat'
p445
NsS'1%'
p446
Nsg78
Nsg183
NsS'evaporated'
p447
NsS'whole'
p448
Nsg394
NssS'tomato'
p449
(dp450
g385
Nsg259
NsS'puree'
p451
NsS'rotel'
p452
Nsg128
NsS'plum'
p453
Nsg175
NsS'paste'
p454
NssS'creme'
p455
(dp456
S'cassis'
p457
NsS'cacao'
p458
NsS'brulee'
p459
NsS'menthe'
p460
NsS'fraiche'
p461
NssS'crema'
p462
(dp463
S'leche'
p464
NssS'pastry'
p465
(dp466
S'puff'
p467
NssS'pudding'
p468
(dp469
S'tapioca'
p470
NsS'mix'
p471
NsS'indian'
p472
Nsg78
NssS'mui'
p473
(dp474
S'hing'
p475
Nssg251
(dp476
g376
NsS'split'
p477
NsS'black-eyed'
p478
NsS'snow'
p479
NssS'pan'
p480
(dp481
S'bundt'
p482
Nssg336
(dp483
S'aleppo'
p484
Nsg272
Nsg275
NsS'birdseye'
p485
NsS'sweet'
p486
NsS'chipotle'
p487
NsS'cayenne'
p488
NsS'peppadew'
p489
Nsg192
NssS'beurre'
p490
(dp491
S'manie'
p492
NsS'blanc'
p493
NssS'hash'
p494
(dp495
g80
Nssg321
(dp496
g158
NssS'peel'
p497
(dp498
g234
Nsg387
Nsg110
NssS'wrap'
p499
(dp500
g137
Nsg138
Nsg139
Nsg140
Nsg141
Nsg142
NssS'snapper'
p501
(dp502
g72
NssS'ammonium'
p503
(dp504
S'bicarbonate'
p505
NssS'water'
p506
(dp507
S'chestnut'
p508
NsS'tonic'
p509
NsS'flower'
p510
Nsg59
NsS'acidulated'
p511
Nsg60
Nsg234
NssS'jamon'
p512
(dp513
S'serrano'
p514
Nssg145
(dp515
S'chinese'
p516
Nssg387
(dp517
g385
NsS'balm'
p518
NsS'grass'
p519
Nsg346
Nssg337
(dp520
g516
NssS'foie'
p521
(dp522
S'gras'
p523
Nssg454
(dp524
S'anchovy'
p525
Nsg414
NssS'broccoli'
p526
(dp527
S'raab'
p528
NssS'butter'
p529
(dp530
S'clarified'
p531
Nsg398
Nsg414
Nsg173
Nsg179
NssS'vinegar'
p532
(dp533
S'balsamic'
p534
Nsg78
NsS'cider'
p535
NsS'malt'
p536
Nsg67
NssS'xantham'
p537
(dp538
S'gum'
p539
NssS'masa'
p540
(dp541
S'harina'
p542
Nssg208
(dp543
S'flakes'
p544
Nsg232
Nsg486
NssS'panna'
p545
(dp546
S'cotta'
p547
NssS'bok'
p548
(dp549
S'choy'
p550
NsS'choi'
p551
NssS'beans'
p552
(dp553
g240
Nsg241
Nsg183
Nsg242
Nsg243
Nsg244
Nsg245
Nsg246
Nsg247
Nsg248
Nsg249
Nsg250
Nsg50
Nsg69
Nsg251
Nsg252
Nsg253
Nsg254
Nsg255
Nsg256
Nsg257
Nsg258
Nsg259
Nsg260
NssS'berry'
p554
(dp555
S'goji'
p556
NssS'soda'
p557
(dp558
S'crackers'
p559
Nsg355
NssS'seaweed'
p560
(dp561
S'wakame'
p562
NssS'smoked'
p563
(dp564
S'salmon'
p565
NssS'egg'
p566
(dp567
S'hundred-year'
p568
NsS'substitute'
p569
Nsg346
NssS'stick'
p570
(dp571
g33
Nsg78
Nss.