(dp0
S'kale'
p1
(dp2
S'baby'
p3
NsS'black'
p4
NssS'essence'
p5
(dp6
S'rose'
p7
NsS'kewra'
p8
NsS'khus'
p9
NssS'dough'
p10
(dp11
S'phyllo'
p12
NsS'cookie'
p13
NssS'artichoke'
p14
(dp15
S'hearts'
p16
NsS'jerusalem'
p17
NssS'oven'
p18
(dp19
S'dutch'
p20
NssS'skin'
p21
(dp22
S'wonton'
p23
NssS'milk'
p24
(dp25
S'almond'
p26
NsS'2%'
p27
NsS'condensed'
p28
NsS'low-fat'
p29
NsS'1%'
p30
NsS'rice'
p31
NsS'soy'
p32
NsS'evaporated'
p33
NsS'whole'
p34
NsS'coconut'
p35
NssS'grape'
p36
(dp37
S'leaves'
p38
NsS'muscadine'
p39
NssS'ham'
p40
(dp41
S'hock'
p42
I2
ssS'sodium'
p43
(dp44
S'isolated'
p45
NsS'citrate'
p46
NssS'cherry'
p47
(dp48
S'amarena'
p49
NsS'maraschino'
p50
NssS'sugar'
p51
(dp52
S'brown'
p53
NsS'date'
p54
NsS'icing'
p55
NsS'raw'
p56
NsS'powdered'
p57
NsS'invert'
p58
NsS'turbinado'
p59
NsS'muscovado'
p60
NsS'barley'
p61
NssS'muffin'
p62
(dp63
S'english'
p64
NssS'melon'
p65
(dp66
S'musk'
p67
NsS'honeydew'
p68
NsS'bitter'
p69
NsS'pie'
p70
Nssg31
(dp71
g53
NsS'paper'
p72
Nsg4
NsS'red'
p73
NsS'wild'
p74
NsS'arborio'
p75
NsS'vermicelli'
p76
NsS'basmati'
p77
NsS'wine'
p78
NssS'sauce'
p79
(dp80
S'tabasco'
p81
I1
sS'tartar'
p82
I1
sS'apple'
p83
NsS'fish'
p84
NsS'hoisin'
p85
I1
sS'hot'
p86
Nsg32
Nsg70
NsS'marinara'
p87
I1
sS'bean'
p88
NsS'horseradish'
p89
I1
sS'oyster'
p90
NsS'cranberry'
p91
NsS'alfredo'
p92
I1
sS'barbecue'
p93
I1
sS'white'
p94
NsS'worcestershire'
p95
I1
sS'spaghetti'
p96
NsS'chili'
p97
Nsg73
NsS'sriracha'
p98
I1
ssS'starch'
p99
(dp100
S'gelatinized'
p101
NsS'potato'
p102
NssS'flour'
p103
(dp104
S'wheat'
p105
NsS'gram'
p106
NsS'pastry'
p107
NsS'grain'
p108
NsS'corn'
p109
Nsg31
Nsg94
NsS'milled'
p110
Nssg88
(dp111
S'moth'
p112
NsS'navy'
p113
Nsg32
NsS'pinto'
p114
NsS'kidney'
p115
NsS'azuki'
p116
NsS'pink'
p117
NsS'lima'
p118
NsS'fermented'
p119
NsS'northern'
p120
NsS'long'
p121
NsS'cannellini'
p122
Nsg4
Nsg94
NsS'pea'
p123
NsS'fava'
p124
NsS'mung'
p125
NsS'great'
p126
NsS'thread'
p127
NsS'adzuki'
p128
NsS'vanilla'
p129
NsS'jelly'
p130
NsS'green'
p131
Nsg91
NssS'molasses'
p132
(dp133
S'pomegranate'
p134
Nsg4
NssS'batter'
p135
(dp136
S'cake'
p137
NsS'pancake'
p138
NssS'sweetener'
p139
(dp140
S'artificial'
p141
NssS'bread'
p142
(dp143
S'pumpernickel'
p144
I1
sg105
NsS'crumbs'
p145
I1
sg102
Nsg94
NsS'rye'
p146
I1
sS'sourdough'
p147
I1
sS'french'
p148
NsS'ciabatta'
p149
I1
ssS'mahi'
p150
(dp151
g150
NssS'onion'
p152
(dp153
g94
Nsg131
NsS'yellow'
p154
Nsg73
NsS'vidalia'
p155
NssS'kern'
p156
(dp157
g131
NssS'gran'
p158
(dp159
S'marnier'
p160
NssS'bamboo'
p161
(dp162
S'shoot'
p163
NsS'preserved'
p164
NssS'seaweed'
p165
(dp166
S'wakame'
p167
NssS'seasoning'
p168
(dp169
S'poultry'
p170
NsS'smoke'
p171
NssS'nut'
p172
(dp173
S'brazil'
p174
NsS'ginkgo'
p175
NsS'cashew'
p176
NsS'macadamia'
p177
NsS'pine'
p178
NssS'bacon'
p179
(dp180
S'grease'
p181
I1
sS'canadian'
p182
NssS'wrap'
p183
(dp184
g23
NsS'lumpia'
p185
NsS'mooshu'
p186
NsS'plastic'
p187
NsS'mu'
p188
NsS'moo'
p189
NssS'palm'
p190
(dp191
g16
Nsg51
NssS'powder'
p192
(dp193
S'mustard'
p194
NsS'cocoa'
p195
NsS'amchoor'
p196
NsS'five-spice'
p197
NsS'garlic'
p198
NsS'file'
p199
Nsg97
NsS'dhania-jeera'
p200
NsS'baking'
p201
Nsg152
NsS'meringue'
p202
NsS'curry'
p203
Nsg73
NssS'sea'
p204
(dp205
S'cucumber'
p206
NsS'bream'
p207
Nssg105
(dp208
S'berries'
p209
Nsg45
NsS'bulgur'
p210
NsS'germ'
p211
NssS'bark'
p212
(dp213
g26
NsS'peppermint'
p214
NssS'extract'
p215
(dp216
g129
I1
sg26
I1
sg214
I1
ssS'whip'
p217
(dp218
S'miracle'
p219
NsS'cool'
p220
NssS'sausage'
p221
(dp222
S'andouille'
p223
I1
sS'creole'
p224
NsS'breakfast'
p225
NsS'chaurice'
p226
NssS'leaf'
p227
(dp228
g203
NsS'thyme'
p229
NsS'bay'
p230
NssS'cooking'
p231
(dp232
S'spray'
p233
I1
ssS'espresso'
p234
(dp235
S'instant'
p236
NssS'creme'
p237
(dp238
S'cassis'
p239
NsS'cacao'
p240
NsS'brulee'
p241
NsS'menthe'
p242
I2
sS'fraiche'
p243
I2
ssS'crema'
p244
(dp245
S'leche'
p246
NssS'mui'
p247
(dp248
S'hing'
p249
Nssg123
(dp250
S'snap'
p251
NsS'split'
p252
NsS'black-eyed'
p253
NsS'snow'
p254
Nssg73
(dp255
S'pepper'
p256
NsS'cabbage'
p257
Nsg88
NsS'leicester'
p258
Nssg256
(dp259
S'aleppo'
p260
NsS'lemon'
p261
NsS'chile'
p262
NsS'ancho'
p263
NsS'birdseye'
p264
NsS'sweet'
p265
NsS'chipotle'
p266
NsS'cayenne'
p267
NsS'peppadew'
p268
Nsg97
NssS'beurre'
p269
(dp270
S'manie'
p271
NsS'blanc'
p272
NssS'hash'
p273
(dp274
g53
Nsg45
NssS'peel'
p275
(dp276
S'orange'
p277
Nsg261
NsS'lime'
p278
NssS'snapper'
p279
(dp280
g73
NssS'water'
p281
(dp282
S'chestnut'
p283
I2
sS'tonic'
p284
I2
sS'flower'
p285
I2
sg277
I2
sg7
I2
sS'acidulated'
p286
I2
sg45
Nsg8
I2
ssS'jamon'
p287
(dp288
S'serrano'
p289
NssS'paste'
p290
(dp291
S'anchovy'
p292
Nsg26
NssS'marrows'
p293
(dp294
g3
NsS'vegetable'
p295
NsS'bone'
p296
NssS'vinegar'
p297
(dp298
S'balsamic'
p299
Nsg31
NsS'cider'
p300
NsS'malt'
p301
Nsg78
NssS'panna'
p302
(dp303
S'cotta'
p304
NssS'pico'
p305
(dp306
S'gallo'
p307
NssS'pudding'
p308
(dp309
S'tapioca'
p310
NsS'mix'
p311
NsS'indian'
p312
Nsg31
NssS'berry'
p313
(dp314
S'goji'
p315
NssS'soda'
p316
(dp317
g281
NsS'crackers'
p318
I1
sg201
NssS'cheese'
p319
(dp320
S'cheddar'
p321
I1
sS'spanish'
p322
NsS'parmesan'
p323
I1
sS'brie'
p324
I1
sS'provolone'
p325
I1
sS'beer'
p326
NsS'buxton'
p327
NsS'farmer'
p328
NsS'ricotta'
p329
I1
sS'brick'
p330
NsS'babybel'
p331
NsS'filata'
p332
NsS'chesire'
p333
NsS'grating'
p334
NsS'specialty'
p335
NsS'jack'
p336
NsS'cottage'
p337
I2
sS'mimolette'
p338
NsS'rope'
p339
NsS'processed'
p340
NsS'semi-hard'
p341
NsS'soft'
p342
NsS'hard'
p343
NsS'provel'
p344
NsS'cream'
p345
I2
sS'blue'
p346
NsS'fontina'
p347
I1
sS'banon'
p348
NsS'feta'
p349
I1
sS'goat'
p350
NsS'boursin'
p351
I1
sS'havarti'
p352
I1
sS'romano'
p353
NsS'washed-rind'
p354
NsS'basket'
p355
NsS'asiago'
p356
I1
sS'dovedale'
p357
NsS'wensleydale'
p358
NsS'shropshire'
p359
NsS'hispanic'
p360
NsS'derby'
p361
NsS'swiss'
p362
I1
sS'lancashire'
p363
NssS'bouquet'
p364
(dp365
S'garni'
p366
Nsg45
NssS'radish'
p367
(dp368
S'watermelon'
p369
NssS'liqueur'
p370
(dp371
S'alize'
p372
NsS'coffee'
p373
NsS'amarula'
p374
Nsg345
NssS'mushrooms'
p375
(dp376
S'portabella'
p377
NsS'cremini'
p378
NssS'lettuce'
p379
(dp380
S'romaine'
p381
NsS'bibb'
p382
NsS'iceberg'
p383
NssS'duck'
p384
(dp385
S'muscovy'
p386
NsS'bombay'
p387
NssS'kielbasa'
p388
(dp389
S'turkey'
p390
NsS'pork'
p391
NsS'beef'
p392
Nssg257
(dp393
S'chinese'
p394
Nssg278
(dp395
S'kaffir'
p396
NsS'pickling'
p397
Nssg392
(dp398
S'jerky'
p399
I1
sS'salted'
p400
NsS'corned'
p401
NssS'monosodium'
p402
(dp403
S'glutamate'
p404
NssS'wrapper'
p405
(dp406
g23
Nsg185
Nsg186
Nsg187
I1
sg188
Nsg189
NssS'crab'
p407
(dp408
S'soft-shell'
p409
NssS'fry'
p410
(dp411
g45
Nsg148
NssS'syrup'
p412
(dp413
S'golden'
p414
NsS'orgean'
p415
Nsg109
NsS'ginger'
p416
NsS'simple'
p417
NsS'maple'
p418
NssS'kiwi'
p419
(dp420
g3
NssS'tomato'
p421
(dp422
S'juice'
p423
Nsg131
NsS'puree'
p424
NsS'rotel'
p425
Nsg47
NsS'plum'
p426
Nsg79
Nsg290
NssS'mushroom'
p427
(dp428
g377
Nsg378
NssS'bagna'
p429
(dp430
g45
NsS'cauda'
p431
NssS'squash'
p432
(dp433
S'butternut'
p434
NsS'acorn'
p435
NssS'chocolate'
p436
(dp437
S'semisweet'
p438
NsS'dark'
p439
NsS'unsweetened'
p440
Nsg94
NsS'semi-sweet'
p441
NsS'chips'
p442
I1
sg24
Nssg277
(dp443
S'mandarin'
p444
NsS'tangerine'
p445
NsS'seville'
p446
NssS'liver'
p447
(dp448
S'goose'
p449
NsS'chicken'
p450
Nsg391
Nssg262
(dp451
S'habanero'
p452
Nsg263
NssS'groat'
p453
(dp454
S'buckwheat'
p455
NssS'spice'
p456
(dp457
S'mixed'
p458
NsS'kabsa'
p459
NsS'pumpkin'
p460
Nsg83
Nsg70
NssS'bel'
p461
(dp462
S'paese'
p463
NssS'cracker'
p464
(dp465
S'graham'
p466
NssS'recado'
p467
(dp468
S'rojo'
p469
Nsg45
Nssg137
(dp470
S'pound'
p471
NssS'dried'
p472
(dp473
S'apricots'
p474
NsS'leeks'
p475
NssS'baba'
p476
(dp477
S'ghanous'
p478
Nsg45
NssS'irish'
p479
(dp480
g373
NsS'mist'
p481
Nsg345
I1
ssg416
(dp482
g251
Nsg326
I1
sS'ale'
p483
I1
sS'crystallized'
p484
NssS'pig'
p485
(dp486
S'feet'
p487
NsS'tongue'
p488
NsS'cheek'
p489
NsS'knuckle'
p490
Nssg423
(dp491
S'cane'
p492
Nsg261
I2
sg83
I2
sg47
I2
sg369
I2
sg277
I2
sg278
I2
ssS'matzo'
p493
(dp494
S'meal'
p495
NssS'seed'
p496
(dp497
g194
NsS'annatto'
p498
NsS'flax'
p499
NsS'fennel'
p500
NsS'sesame'
p501
NsS'caraway'
p502
NsS'sunflower'
p503
NsS'nigella'
p504
NsS'celery'
p505
NsS'poppy'
p506
Nsg460
Nssg107
(dp507
S'puff'
p508
NssS'sprouts'
p509
(dp510
S'alfalfa'
p511
Nsg88
NsS'brussel'
p512
Nssg345
(dp513
S'heavy'
p514
Nsg35
Nsg82
I2
sS'light'
p515
NsS'ice'
p516
I2
sS'sour'
p517
I2
sg105
I2
ssg261
(dp518
g423
NsS'balm'
p519
NsS'grass'
p520
Nsg164
NssS'nuts'
p521
(dp522
g174
Nsg175
Nsg176
Nsg177
Nsg178
NssS'bok'
p523
(dp524
S'choy'
p525
Nsg45
NsS'choi'
p526
NssS'grand'
p527
(dp528
g160
NssS'beans'
p529
(dp530
g112
Nsg113
Nsg32
Nsg114
Nsg115
Nsg116
Nsg117
Nsg118
Nsg119
Nsg120
Nsg121
Nsg122
Nsg4
Nsg94
Nsg123
Nsg124
Nsg125
Nsg126
Nsg127
Nsg128
Nsg129
Nsg130
Nsg131
Nsg91
NssS'roll'
p531
(dp532
g337
Nsg130
NssS'pan'
p533
(dp534
S'bundt'
p535
NssS'oil'
p536
(dp537
S'olive'
p538
Nsg35
Nsg295
Nsg190
NsS'canola'
p539
NsS'citrus'
p540
NsS'peanut'
p541
Nsg109
NsS'argan'
p542
Nssg194
(dp543
g64
NssS'ammonium'
p544
(dp545
g45
NsS'bicarbonate'
p546
I2
ssg54
(dp547
g394
NssS'marrow'
p548
(dp549
g3
Nsg295
Nsg296
NssS'foie'
p550
(dp551
S'gras'
p552
Nsg45
NssS'broccoli'
p553
(dp554
S'raab'
p555
NssS'butter'
p556
(dp557
S'clarified'
p558
Nsg541
I1
sg26
Nsg177
Nsg83
NssS'xantham'
p559
(dp560
g45
NsS'gum'
p561
NssS'masa'
p562
(dp563
S'harina'
p564
Nssg102
(dp565
S'flakes'
p566
Nsg442
Nsg265
NssS'smoked'
p567
(dp568
g390
I1
sS'salmon'
p569
I1
ssS'egg'
p570
(dp571
S'hundred-year'
p572
NsS'substitute'
p573
Nsg164
Nssg78
(dp574
g94
Nsg231
NsS'zinfandel'
p575
Nsg73
Nsg516
Nss.